(i__main__
Node
p0
(dp1
S'attr_value'
p2
I469
sS'right'
p3
(i__main__
Node
p4
(dp5
g2
I28
sg3
(i__main__
Node
p6
(dp7
g2
I672
sg3
(i__main__
Node
p8
(dp9
g2
I119
sg3
(i__main__
Node
p10
(dp11
g2
I259
sg3
(i__main__
Node
p12
(dp13
g2
Nsg3
NsS'predicted_label'
p14
I5
sS'attr'
p15
NsS'left'
p16
Nsbsg14
I6
sg15
I4
sg16
(i__main__
Node
p17
(dp18
g2
I602
sg3
(i__main__
Node
p19
(dp20
g2
Nsg3
Nsg14
I5
sg15
Nsg16
Nsbsg14
I6
sg15
I8
sg16
(i__main__
Node
p21
(dp22
g2
I686
sg3
(i__main__
Node
p23
(dp24
g2
Nsg3
Nsg14
I6
sg15
Nsg16
Nsbsg14
I6
sg15
I10
sg16
(i__main__
Node
p25
(dp26
g2
Nsg3
Nsg14
I7
sg15
Nsg16
Nsbsbsbsbsg14
I6
sg15
I4
sg16
(i__main__
Node
p27
(dp28
g2
I756
sg3
(i__main__
Node
p29
(dp30
g2
I175
sg3
(i__main__
Node
p31
(dp32
g2
I56
sg3
(i__main__
Node
p33
(dp34
g2
Nsg3
Nsg14
I7
sg15
Nsg16
Nsbsg14
I7
sg15
I4
sg16
(i__main__
Node
p35
(dp36
g2
I28
sg3
(i__main__
Node
p37
(dp38
g2
Nsg3
Nsg14
I8
sg15
Nsg16
Nsbsg14
I8
sg15
I4
sg16
(i__main__
Node
p39
(dp40
g2
I112
sg3
(i__main__
Node
p41
(dp42
g2
Nsg3
Nsg14
I9
sg15
Nsg16
Nsbsg14
I5
sg15
I0
sg16
(i__main__
Node
p43
(dp44
g2
Nsg3
Nsg14
I5
sg15
Nsg16
Nsbsbsbsbsg14
I7
sg15
I5
sg16
(i__main__
Node
p45
(dp46
g2
I707
sg3
(i__main__
Node
p47
(dp48
g2
I49
sg3
(i__main__
Node
p49
(dp50
g2
Nsg3
Nsg14
I5
sg15
Nsg16
Nsbsg14
I6
sg15
I3
sg16
(i__main__
Node
p51
(dp52
g2
Nsg3
Nsg14
I6
sg15
Nsg16
Nsbsbsg14
I7
sg15
I9
sg16
(i__main__
Node
p53
(dp54
g2
I259
sg3
(i__main__
Node
p55
(dp56
g2
I168
sg3
(i__main__
Node
p57
(dp58
g2
I224
sg3
(i__main__
Node
p59
(dp60
g2
I259
sg3
(i__main__
Node
p61
(dp62
g2
Nsg3
Nsg14
I8
sg15
Nsg16
Nsbsg14
I4
sg15
I0
sg16
(i__main__
Node
p63
(dp64
g2
Nsg3
Nsg14
I4
sg15
Nsg16
Nsbsbsg14
I7
sg15
I3
sg16
(i__main__
Node
p65
(dp66
g2
Nsg3
Nsg14
I7
sg15
Nsg16
Nsbsbsg14
I6
sg15
I7
sg16
(i__main__
Node
p67
(dp68
g2
I294
sg3
(i__main__
Node
p69
(dp70
g2
Nsg3
Nsg14
I6
sg15
Nsg16
Nsbsg14
I6
sg15
I2
sg16
(i__main__
Node
p71
(dp72
g2
I259
sg3
(i__main__
Node
p73
(dp74
g2
I273
sg3
(i__main__
Node
p75
(dp76
g2
Nsg3
Nsg14
I4
sg15
Nsg16
Nsbsg14
I6
sg15
I0
sg16
(i__main__
Node
p77
(dp78
g2
Nsg3
Nsg14
I6
sg15
Nsg16
Nsbsbsg14
I8
sg15
I0
sg16
(i__main__
Node
p79
(dp80
g2
Nsg3
Nsg14
I8
sg15
Nsg16
Nsbsbsbsbsg14
I7
sg15
I2
sg16
(i__main__
Node
p81
(dp82
g2
I147
sg3
(i__main__
Node
p83
(dp84
g2
I259
sg3
(i__main__
Node
p85
(dp86
g2
I119
sg3
(i__main__
Node
p87
(dp88
g2
I84
sg3
(i__main__
Node
p89
(dp90
g2
I301
sg3
(i__main__
Node
p91
(dp92
g2
Nsg3
Nsg14
I6
sg15
Nsg16
Nsbsg14
I6
sg15
I9
sg16
(i__main__
Node
p93
(dp94
g2
I259
sg3
(i__main__
Node
p95
(dp96
g2
Nsg3
Nsg14
I7
sg15
Nsg16
Nsbsg14
I7
sg15
I0
sg16
(i__main__
Node
p97
(dp98
g2
I238
sg3
(i__main__
Node
p99
(dp100
g2
Nsg3
Nsg14
I6
sg15
Nsg16
Nsbsg14
I6
sg15
I0
sg16
(i__main__
Node
p101
(dp102
g2
I161
sg3
(i__main__
Node
p103
(dp104
g2
Nsg3
Nsg14
I7
sg15
Nsg16
Nsbsg14
I7
sg15
I1
sg16
(i__main__
Node
p105
(dp106
g2
Nsg3
Nsg14
I6
sg15
Nsg16
Nsbsbsbsbsbsg14
I7
sg15
I4
sg16
(i__main__
Node
p107
(dp108
g2
I196
sg3
(i__main__
Node
p109
(dp110
g2
I210
sg3
(i__main__
Node
p111
(dp112
g2
I287
sg3
(i__main__
Node
p113
(dp114
g2
Nsg3
Nsg14
I7
sg15
Nsg16
Nsbsg14
I6
sg15
I6
sg16
(i__main__
Node
p115
(dp116
g2
Nsg3
Nsg14
I6
sg15
Nsg16
Nsbsbsg14
I7
sg15
I2
sg16
(i__main__
Node
p117
(dp118
g2
I49
sg3
(i__main__
Node
p119
(dp120
g2
Nsg3
Nsg14
I7
sg15
Nsg16
Nsbsg14
I7
sg15
I5
sg16
(i__main__
Node
p121
(dp122
g2
Nsg3
Nsg14
I6
sg15
Nsg16
Nsbsbsbsg14
I7
sg15
I0
sg16
(i__main__
Node
p123
(dp124
g2
I70
sg3
(i__main__
Node
p125
(dp126
g2
Nsg3
Nsg14
I6
sg15
Nsg16
Nsbsg14
I6
sg15
I4
sg16
(i__main__
Node
p127
(dp128
g2
I56
sg3
(i__main__
Node
p129
(dp130
g2
Nsg3
Nsg14
I7
sg15
Nsg16
Nsbsg14
I7
sg15
I4
sg16
(i__main__
Node
p131
(dp132
g2
Nsg3
Nsg14
I6
sg15
Nsg16
Nsbsbsbsbsbsg14
I7
sg15
I9
sg16
(i__main__
Node
p133
(dp134
g2
I175
sg3
(i__main__
Node
p135
(dp136
g2
I84
sg3
(i__main__
Node
p137
(dp138
g2
Nsg3
Nsg14
I6
sg15
Nsg16
Nsbsg14
I6
sg15
I4
sg16
(i__main__
Node
p139
(dp140
g2
Nsg3
Nsg14
I8
sg15
Nsg16
Nsbsbsg14
I6
sg15
I2
sg16
(i__main__
Node
p141
(dp142
g2
Nsg3
Nsg14
I7
sg15
Nsg16
Nsbsbsbsg14
I7
sg15
I6
sg16
(i__main__
Node
p143
(dp144
g2
I91
sg3
(i__main__
Node
p145
(dp146
g2
I322
sg3
(i__main__
Node
p147
(dp148
g2
I84
sg3
(i__main__
Node
p149
(dp150
g2
Nsg3
Nsg14
I8
sg15
Nsg16
Nsbsg14
I7
sg15
I4
sg16
(i__main__
Node
p151
(dp152
g2
I154
sg3
(i__main__
Node
p153
(dp154
g2
Nsg3
Nsg14
I7
sg15
Nsg16
Nsbsg14
I7
sg15
I6
sg16
(i__main__
Node
p155
(dp156
g2
Nsg3
Nsg14
I8
sg15
Nsg16
Nsbsbsbsg14
I7
sg15
I0
sg16
(i__main__
Node
p157
(dp158
g2
I217
sg3
(i__main__
Node
p159
(dp160
g2
I182
sg3
(i__main__
Node
p161
(dp162
g2
I56
sg3
(i__main__
Node
p163
(dp164
g2
I63
sg3
(i__main__
Node
p165
(dp166
g2
I287
sg3
(i__main__
Node
p167
(dp168
g2
I287
sg3
(i__main__
Node
p169
(dp170
g2
I532
sg3
(i__main__
Node
p171
(dp172
g2
Nsg3
Nsg14
I6
sg15
Nsg16
Nsbsg14
I7
sg15
I8
sg16
(i__main__
Node
p173
(dp174
g2
Nsg3
Nsg14
I7
sg15
Nsg16
Nsbsbsg14
I7
sg15
I9
sg16
(i__main__
Node
p175
(dp176
g2
I336
sg3
(i__main__
Node
p177
(dp178
g2
Nsg3
Nsg14
I8
sg15
Nsg16
Nsbsg14
I6
sg15
I1
sg16
(i__main__
Node
p179
(dp180
g2
Nsg3
Nsg14
I6
sg15
Nsg16
Nsbsbsbsg14
I7
sg15
I0
sg16
(i__main__
Node
p181
(dp182
g2
I84
sg3
(i__main__
Node
p183
(dp184
g2
I189
sg3
(i__main__
Node
p185
(dp186
g2
Nsg3
Nsg14
I7
sg15
Nsg16
Nsbsg14
I8
sg15
I2
sg16
(i__main__
Node
p187
(dp188
g2
Nsg3
Nsg14
I8
sg15
Nsg16
Nsbsbsg14
I7
sg15
I3
sg16
(i__main__
Node
p189
(dp190
g2
Nsg3
Nsg14
I7
sg15
Nsg16
Nsbsbsbsg14
I7
sg15
I5
sg16
(i__main__
Node
p191
(dp192
g2
I119
sg3
(i__main__
Node
p193
(dp194
g2
I805
sg3
(i__main__
Node
p195
(dp196
g2
Nsg3
Nsg14
I6
sg15
Nsg16
Nsbsg14
I6
sg15
I10
sg16
(i__main__
Node
p197
(dp198
g2
I182
sg3
(i__main__
Node
p199
(dp200
g2
Nsg3
Nsg14
I6
sg15
Nsg16
Nsbsg14
I7
sg15
I2
sg16
(i__main__
Node
p201
(dp202
g2
Nsg3
Nsg14
I7
sg15
Nsg16
Nsbsbsbsg14
I6
sg15
I9
sg16
(i__main__
Node
p203
(dp204
g2
I224
sg3
(i__main__
Node
p205
(dp206
g2
Nsg3
Nsg14
I7
sg15
Nsg16
Nsbsg14
I7
sg15
I0
sg16
(i__main__
Node
p207
(dp208
g2
Nsg3
Nsg14
I8
sg15
Nsg16
Nsbsbsbsbsg14
I7
sg15
I7
sg16
(i__main__
Node
p209
(dp210
g2
Nsg3
Nsg14
I6
sg15
Nsg16
Nsbsbsg14
I7
sg15
I1
sg16
(i__main__
Node
p211
(dp212
g2
I154
sg3
(i__main__
Node
p213
(dp214
g2
I224
sg3
(i__main__
Node
p215
(dp216
g2
Nsg3
Nsg14
I8
sg15
Nsg16
Nsbsg14
I8
sg15
I0
sg16
(i__main__
Node
p217
(dp218
g2
Nsg3
Nsg14
I7
sg15
Nsg16
Nsbsbsg14
I7
sg15
I1
sg16
(i__main__
Node
p219
(dp220
g2
Nsg3
Nsg14
I7
sg15
Nsg16
Nsbsbsbsg14
I7
sg15
I0
sg16
(i__main__
Node
p221
(dp222
g2
I203
sg3
(i__main__
Node
p223
(dp224
g2
I70
sg3
(i__main__
Node
p225
(dp226
g2
I238
sg3
(i__main__
Node
p227
(dp228
g2
I119
sg3
(i__main__
Node
p229
(dp230
g2
Nsg3
Nsg14
I7
sg15
Nsg16
Nsbsg14
I7
sg15
I5
sg16
(i__main__
Node
p231
(dp232
g2
I42
sg3
(i__main__
Node
p233
(dp234
g2
Nsg3
Nsg14
I6
sg15
Nsg16
Nsbsg14
I6
sg15
I4
sg16
(i__main__
Node
p235
(dp236
g2
Nsg3
Nsg14
I7
sg15
Nsg16
Nsbsbsbsg14
I7
sg15
I1
sg16
(i__main__
Node
p237
(dp238
g2
I189
sg3
(i__main__
Node
p239
(dp240
g2
Nsg3
Nsg14
I6
sg15
Nsg16
Nsbsg14
I6
sg15
I0
sg16
(i__main__
Node
p241
(dp242
g2
Nsg3
Nsg14
I8
sg15
Nsg16
Nsbsbsbsg14
I7
sg15
I5
sg16
(i__main__
Node
p243
(dp244
g2
Nsg3
Nsg14
I7
sg15
Nsg16
Nsbsbsg14
I6
sg15
I1
sg16
(i__main__
Node
p245
(dp246
g2
I798
sg3
(i__main__
Node
p247
(dp248
g2
I168
sg3
(i__main__
Node
p249
(dp250
g2
Nsg3
Nsg14
I7
sg15
Nsg16
Nsbsg14
I7
sg15
I2
sg16
(i__main__
Node
p251
(dp252
g2
Nsg3
Nsg14
I6
sg15
Nsg16
Nsbsbsg14
I6
sg15
I10
sg16
(i__main__
Node
p253
(dp254
g2
Nsg3
Nsg14
I6
sg15
Nsg16
Nsbsbsbsbsbsg14
I7
sg15
I1
sg16
(i__main__
Node
p255
(dp256
g2
I266
sg3
(i__main__
Node
p257
(dp258
g2
Nsg3
Nsg14
I6
sg15
Nsg16
Nsbsg14
I6
sg15
I0
sg16
(i__main__
Node
p259
(dp260
g2
Nsg3
Nsg14
I8
sg15
Nsg16
Nsbsbsbsbsg14
I7
sg15
I0
sg16
(i__main__
Node
p261
(dp262
g2
I49
sg3
(i__main__
Node
p263
(dp264
g2
I133
sg3
(i__main__
Node
p265
(dp266
g2
Nsg3
Nsg14
I8
sg15
Nsg16
Nsbsg14
I8
sg15
I0
sg16
(i__main__
Node
p267
(dp268
g2
I126
sg3
(i__main__
Node
p269
(dp270
g2
Nsg3
Nsg14
I8
sg15
Nsg16
Nsbsg14
I7
sg15
I2
sg16
(i__main__
Node
p271
(dp272
g2
Nsg3
Nsg14
I7
sg15
Nsg16
Nsbsbsbsg14
I8
sg15
I4
sg16
(i__main__
Node
p273
(dp274
g2
I133
sg3
(i__main__
Node
p275
(dp276
g2
Nsg3
Nsg14
I8
sg15
Nsg16
Nsbsg14
I6
sg15
I2
sg16
(i__main__
Node
p277
(dp278
g2
Nsg3
Nsg14
I6
sg15
Nsg16
Nsbsbsbsbsbsbsbsg14
I6
sg15
I10
sg16
(i__main__
Node
p279
(dp280
g2
I588
sg3
(i__main__
Node
p281
(dp282
g2
I189
sg3
(i__main__
Node
p283
(dp284
g2
I182
sg3
(i__main__
Node
p285
(dp286
g2
Nsg3
Nsg14
I8
sg15
Nsg16
Nsbsg14
I8
sg15
I1
sg16
(i__main__
Node
p287
(dp288
g2
Nsg3
Nsg14
I6
sg15
Nsg16
Nsbsbsg14
I7
sg15
I3
sg16
(i__main__
Node
p289
(dp290
g2
I182
sg3
(i__main__
Node
p291
(dp292
g2
I14
sg3
(i__main__
Node
p293
(dp294
g2
Nsg3
Nsg14
I7
sg15
Nsg16
Nsbsg14
I7
sg15
I2
sg16
(i__main__
Node
p295
(dp296
g2
Nsg3
Nsg14
I6
sg15
Nsg16
Nsbsbsg14
I7
sg15
I6
sg16
(i__main__
Node
p297
(dp298
g2
I119
sg3
(i__main__
Node
p299
(dp300
g2
I161
sg3
(i__main__
Node
p301
(dp302
g2
Nsg3
Nsg14
I9
sg15
Nsg16
Nsbsg14
I5
sg15
I0
sg16
(i__main__
Node
p303
(dp304
g2
Nsg3
Nsg14
I5
sg15
Nsg16
Nsbsbsg14
I5
sg15
I0
sg16
(i__main__
Node
p305
(dp306
g2
Nsg3
Nsg14
I6
sg15
Nsg16
Nsbsbsbsbsg14
I6
sg15
I8
sg16
(i__main__
Node
p307
(dp308
g2
I161
sg3
(i__main__
Node
p309
(dp310
g2
I700
sg3
(i__main__
Node
p311
(dp312
g2
I217
sg3
(i__main__
Node
p313
(dp314
g2
I259
sg3
(i__main__
Node
p315
(dp316
g2
Nsg3
Nsg14
I8
sg15
Nsg16
Nsbsg14
I8
sg15
I0
sg16
(i__main__
Node
p317
(dp318
g2
Nsg3
Nsg14
I6
sg15
Nsg16
Nsbsbsg14
I8
sg15
I0
sg16
(i__main__
Node
p319
(dp320
g2
Nsg3
Nsg14
I8
sg15
Nsg16
Nsbsbsg14
I8
sg15
I10
sg16
(i__main__
Node
p321
(dp322
g2
I154
sg3
(i__main__
Node
p323
(dp324
g2
Nsg3
Nsg14
I7
sg15
Nsg16
Nsbsg14
I7
sg15
I1
sg16
(i__main__
Node
p325
(dp326
g2
I147
sg3
(i__main__
Node
p327
(dp328
g2
Nsg3
Nsg14
I8
sg15
Nsg16
Nsbsg14
I8
sg15
I0
sg16
(i__main__
Node
p329
(dp330
g2
Nsg3
Nsg14
I7
sg15
Nsg16
Nsbsbsbsbsg14
I6
sg15
I5
sg16
(i__main__
Node
p331
(dp332
g2
I189
sg3
(i__main__
Node
p333
(dp334
g2
I56
sg3
(i__main__
Node
p335
(dp336
g2
I140
sg3
(i__main__
Node
p337
(dp338
g2
I154
sg3
(i__main__
Node
p339
(dp340
g2
I273
sg3
(i__main__
Node
p341
(dp342
g2
I294
sg3
(i__main__
Node
p343
(dp344
g2
I175
sg3
(i__main__
Node
p345
(dp346
g2
Nsg3
Nsg14
I7
sg15
Nsg16
Nsbsg14
I7
sg15
I2
sg16
(i__main__
Node
p347
(dp348
g2
Nsg3
Nsg14
I6
sg15
Nsg16
Nsbsbsg14
I6
sg15
I0
sg16
(i__main__
Node
p349
(dp350
g2
I378
sg3
(i__main__
Node
p351
(dp352
g2
Nsg3
Nsg14
I5
sg15
Nsg16
Nsbsg14
I6
sg15
I9
sg16
(i__main__
Node
p353
(dp354
g2
Nsg3
Nsg14
I6
sg15
Nsg16
Nsbsbsbsg14
I6
sg15
I6
sg16
(i__main__
Node
p355
(dp356
g2
I301
sg3
(i__main__
Node
p357
(dp358
g2
I399
sg3
(i__main__
Node
p359
(dp360
g2
Nsg3
Nsg14
I5
sg15
Nsg16
Nsbsg14
I7
sg15
I0
sg16
(i__main__
Node
p361
(dp362
g2
I168
sg3
(i__main__
Node
p363
(dp364
g2
Nsg3
Nsg14
I7
sg15
Nsg16
Nsbsg14
I7
sg15
I2
sg16
(i__main__
Node
p365
(dp366
g2
I364
sg3
(i__main__
Node
p367
(dp368
g2
Nsg3
Nsg14
I8
sg15
Nsg16
Nsbsg14
I7
sg15
I0
sg16
(i__main__
Node
p369
(dp370
g2
Nsg3
Nsg14
I7
sg15
Nsg16
Nsbsbsbsbsg14
I7
sg15
I1
sg16
(i__main__
Node
p371
(dp372
g2
I231
sg3
(i__main__
Node
p373
(dp374
g2
I287
sg3
(i__main__
Node
p375
(dp376
g2
I203
sg3
(i__main__
Node
p377
(dp378
g2
Nsg3
Nsg14
I6
sg15
Nsg16
Nsbsg14
I6
sg15
I1
sg16
(i__main__
Node
p379
(dp380
g2
Nsg3
Nsg14
I8
sg15
Nsg16
Nsbsbsg14
I8
sg15
I0
sg16
(i__main__
Node
p381
(dp382
g2
I259
sg3
(i__main__
Node
p383
(dp384
g2
I266
sg3
(i__main__
Node
p385
(dp386
g2
Nsg3
Nsg14
I8
sg15
Nsg16
Nsbsg14
I7
sg15
I6
sg16
(i__main__
Node
p387
(dp388
g2
Nsg3
Nsg14
I7
sg15
Nsg16
Nsbsbsg14
I8
sg15
I6
sg16
(i__main__
Node
p389
(dp390
g2
Nsg3
Nsg14
I8
sg15
Nsg16
Nsbsbsbsg14
I6
sg15
I6
sg16
(i__main__
Node
p391
(dp392
g2
I175
sg3
(i__main__
Node
p393
(dp394
g2
I266
sg3
(i__main__
Node
p395
(dp396
g2
Nsg3
Nsg14
I6
sg15
Nsg16
Nsbsg14
I7
sg15
I2
sg16
(i__main__
Node
p397
(dp398
g2
Nsg3
Nsg14
I7
sg15
Nsg16
Nsbsbsg14
I6
sg15
I2
sg16
(i__main__
Node
p399
(dp400
g2
Nsg3
Nsg14
I6
sg15
Nsg16
Nsbsbsbsbsbsg14
I6
sg15
I7
sg16
(i__main__
Node
p401
(dp402
g2
I224
sg3
(i__main__
Node
p403
(dp404
g2
I252
sg3
(i__main__
Node
p405
(dp406
g2
Nsg3
Nsg14
I7
sg15
Nsg16
Nsbsg14
I7
sg15
I1
sg16
(i__main__
Node
p407
(dp408
g2
I217
sg3
(i__main__
Node
p409
(dp410
g2
Nsg3
Nsg14
I6
sg15
Nsg16
Nsbsg14
I6
sg15
I2
sg16
(i__main__
Node
p411
(dp412
g2
I126
sg3
(i__main__
Node
p413
(dp414
g2
Nsg3
Nsg14
I7
sg15
Nsg16
Nsbsg14
I7
sg15
I7
sg16
(i__main__
Node
p415
(dp416
g2
I112
sg3
(i__main__
Node
p417
(dp418
g2
I217
sg3
(i__main__
Node
p419
(dp420
g2
Nsg3
Nsg14
I7
sg15
Nsg16
Nsbsg14
I7
sg15
I1
sg16
(i__main__
Node
p421
(dp422
g2
I294
sg3
(i__main__
Node
p423
(dp424
g2
Nsg3
Nsg14
I7
sg15
Nsg16
Nsbsg14
I6
sg15
I0
sg16
(i__main__
Node
p425
(dp426
g2
Nsg3
Nsg14
I6
sg15
Nsg16
Nsbsbsbsg14
I6
sg15
I5
sg16
(i__main__
Node
p427
(dp428
g2
Nsg3
Nsg14
I6
sg15
Nsg16
Nsbsbsbsbsbsg14
I7
sg15
I8
sg16
(i__main__
Node
p429
(dp430
g2
Nsg3
Nsg14
I5
sg15
Nsg16
Nsbsbsbsg14
I6
sg15
I2
sg16
(i__main__
Node
p431
(dp432
g2
I133
sg3
(i__main__
Node
p433
(dp434
g2
Nsg3
Nsg14
I6
sg15
Nsg16
Nsbsg14
I6
sg15
I0
sg16
(i__main__
Node
p435
(dp436
g2
Nsg3
Nsg14
I8
sg15
Nsg16
Nsbsbsbsg14
I6
sg15
I5
sg16
(i__main__
Node
p437
(dp438
g2
Nsg3
Nsg14
I6
sg15
Nsg16
Nsbsbsg14
I6
sg15
I1
sg16
(i__main__
Node
p439
(dp440
g2
I189
sg3
(i__main__
Node
p441
(dp442
g2
I217
sg3
(i__main__
Node
p443
(dp444
g2
I224
sg3
(i__main__
Node
p445
(dp446
g2
I217
sg3
(i__main__
Node
p447
(dp448
g2
Nsg3
Nsg14
I8
sg15
Nsg16
Nsbsg14
I6
sg15
I2
sg16
(i__main__
Node
p449
(dp450
g2
Nsg3
Nsg14
I6
sg15
Nsg16
Nsbsbsg14
I8
sg15
I7
sg16
(i__main__
Node
p451
(dp452
g2
Nsg3
Nsg14
I8
sg15
Nsg16
Nsbsbsg14
I8
sg15
I0
sg16
(i__main__
Node
p453
(dp454
g2
Nsg3
Nsg14
I7
sg15
Nsg16
Nsbsbsg14
I6
sg15
I3
sg16
(i__main__
Node
p455
(dp456
g2
I651
sg3
(i__main__
Node
p457
(dp458
g2
I189
sg3
(i__main__
Node
p459
(dp460
g2
Nsg3
Nsg14
I7
sg15
Nsg16
Nsbsg14
I7
sg15
I0
sg16
(i__main__
Node
p461
(dp462
g2
Nsg3
Nsg14
I8
sg15
Nsg16
Nsbsbsg14
I6
sg15
I9
sg16
(i__main__
Node
p463
(dp464
g2
I217
sg3
(i__main__
Node
p465
(dp466
g2
I497
sg3
(i__main__
Node
p467
(dp468
g2
I511
sg3
(i__main__
Node
p469
(dp470
g2
Nsg3
Nsg14
I6
sg15
Nsg16
Nsbsg14
I6
sg15
I8
sg16
(i__main__
Node
p471
(dp472
g2
I259
sg3
(i__main__
Node
p473
(dp474
g2
Nsg3
Nsg14
I8
sg15
Nsg16
Nsbsg14
I7
sg15
I0
sg16
(i__main__
Node
p475
(dp476
g2
Nsg3
Nsg14
I7
sg15
Nsg16
Nsbsbsbsg14
I6
sg15
I8
sg16
(i__main__
Node
p477
(dp478
g2
Nsg3
Nsg14
I6
sg15
Nsg16
Nsbsbsg14
I6
sg15
I6
sg16
(i__main__
Node
p479
(dp480
g2
I721
sg3
(i__main__
Node
p481
(dp482
g2
Nsg3
Nsg14
I6
sg15
Nsg16
Nsbsg14
I6
sg15
I10
sg16
(i__main__
Node
p483
(dp484
g2
I21
sg3
(i__main__
Node
p485
(dp486
g2
I210
sg3
(i__main__
Node
p487
(dp488
g2
I224
sg3
(i__main__
Node
p489
(dp490
g2
Nsg3
Nsg14
I7
sg15
Nsg16
Nsbsg14
I7
sg15
I0
sg16
(i__main__
Node
p491
(dp492
g2
I119
sg3
(i__main__
Node
p493
(dp494
g2
Nsg3
Nsg14
I6
sg15
Nsg16
Nsbsg14
I7
sg15
I0
sg16
(i__main__
Node
p495
(dp496
g2
Nsg3
Nsg14
I7
sg15
Nsg16
Nsbsbsbsg14
I6
sg15
I2
sg16
(i__main__
Node
p497
(dp498
g2
I133
sg3
(i__main__
Node
p499
(dp500
g2
Nsg3
Nsg14
I6
sg15
Nsg16
Nsbsg14
I6
sg15
I1
sg16
(i__main__
Node
p501
(dp502
g2
I175
sg3
(i__main__
Node
p503
(dp504
g2
Nsg3
Nsg14
I7
sg15
Nsg16
Nsbsg14
I7
sg15
I0
sg16
(i__main__
Node
p505
(dp506
g2
Nsg3
Nsg14
I6
sg15
Nsg16
Nsbsbsbsbsg14
I6
sg15
I3
sg16
(i__main__
Node
p507
(dp508
g2
Nsg3
Nsg14
I6
sg15
Nsg16
Nsbsbsbsbsbsbsbsbsbsbsbsg14
I6
sg15
I10
sg16
(i__main__
Node
p509
(dp510
g2
I343
sg3
(i__main__
Node
p511
(dp512
g2
I308
sg3
(i__main__
Node
p513
(dp514
g2
I420
sg3
(i__main__
Node
p515
(dp516
g2
I63
sg3
(i__main__
Node
p517
(dp518
g2
I315
sg3
(i__main__
Node
p519
(dp520
g2
I434
sg3
(i__main__
Node
p521
(dp522
g2
Nsg3
Nsg14
I3
sg15
Nsg16
Nsbsg14
I7
sg15
I0
sg16
(i__main__
Node
p523
(dp524
g2
Nsg3
Nsg14
I7
sg15
Nsg16
Nsbsbsg14
I6
sg15
I6
sg16
(i__main__
Node
p525
(dp526
g2
Nsg3
Nsg14
I6
sg15
Nsg16
Nsbsbsg14
I5
sg15
I4
sg16
(i__main__
Node
p527
(dp528
g2
I462
sg3
(i__main__
Node
p529
(dp530
g2
Nsg3
Nsg14
I7
sg15
Nsg16
Nsbsg14
I5
sg15
I0
sg16
(i__main__
Node
p531
(dp532
g2
Nsg3
Nsg14
I5
sg15
Nsg16
Nsbsbsbsg14
I6
sg15
I0
sg16
(i__main__
Node
p533
(dp534
g2
I70
sg3
(i__main__
Node
p535
(dp536
g2
I329
sg3
(i__main__
Node
p537
(dp538
g2
I350
sg3
(i__main__
Node
p539
(dp540
g2
Nsg3
Nsg14
I7
sg15
Nsg16
Nsbsg14
I6
sg15
I1
sg16
(i__main__
Node
p541
(dp542
g2
I266
sg3
(i__main__
Node
p543
(dp544
g2
Nsg3
Nsg14
I6
sg15
Nsg16
Nsbsg14
I6
sg15
I3
sg16
(i__main__
Node
p545
(dp546
g2
I203
sg3
(i__main__
Node
p547
(dp548
g2
I238
sg3
(i__main__
Node
p549
(dp550
g2
Nsg3
Nsg14
I7
sg15
Nsg16
Nsbsg14
I7
sg15
I3
sg16
(i__main__
Node
p551
(dp552
g2
Nsg3
Nsg14
I6
sg15
Nsg16
Nsbsbsg14
I7
sg15
I1
sg16
(i__main__
Node
p553
(dp554
g2
Nsg3
Nsg14
I6
sg15
Nsg16
Nsbsbsbsbsg14
I6
sg15
I6
sg16
(i__main__
Node
p555
(dp556
g2
Nsg3
Nsg14
I6
sg15
Nsg16
Nsbsbsg14
I6
sg15
I1
sg16
(i__main__
Node
p557
(dp558
g2
Nsg3
Nsg14
I7
sg15
Nsg16
Nsbsbsbsg14
I6
sg15
I7
sg16
(i__main__
Node
p559
(dp560
g2
I112
sg3
(i__main__
Node
p561
(dp562
g2
I147
sg3
(i__main__
Node
p563
(dp564
g2
I224
sg3
(i__main__
Node
p565
(dp566
g2
I385
sg3
(i__main__
Node
p567
(dp568
g2
Nsg3
Nsg14
I5
sg15
Nsg16
Nsbsg14
I6
sg15
I0
sg16
(i__main__
Node
p569
(dp570
g2
Nsg3
Nsg14
I6
sg15
Nsg16
Nsbsbsg14
I5
sg15
I7
sg16
(i__main__
Node
p571
(dp572
g2
Nsg3
Nsg14
I5
sg15
Nsg16
Nsbsbsg14
I5
sg15
I9
sg16
(i__main__
Node
p573
(dp574
g2
Nsg3
Nsg14
I6
sg15
Nsg16
Nsbsbsg14
I6
sg15
I4
sg16
(i__main__
Node
p575
(dp576
g2
I42
sg3
(i__main__
Node
p577
(dp578
g2
I287
sg3
(i__main__
Node
p579
(dp580
g2
I35
sg3
(i__main__
Node
p581
(dp582
g2
Nsg3
Nsg14
I6
sg15
Nsg16
Nsbsg14
I6
sg15
I3
sg16
(i__main__
Node
p583
(dp584
g2
I77
sg3
(i__main__
Node
p585
(dp586
g2
I364
sg3
(i__main__
Node
p587
(dp588
g2
Nsg3
Nsg14
I7
sg15
Nsg16
Nsbsg14
I7
sg15
I0
sg16
(i__main__
Node
p589
(dp590
g2
Nsg3
Nsg14
I6
sg15
Nsg16
Nsbsbsg14
I6
sg15
I4
sg16
(i__main__
Node
p591
(dp592
g2
Nsg3
Nsg14
I6
sg15
Nsg16
Nsbsbsbsg14
I6
sg15
I9
sg16
(i__main__
Node
p593
(dp594
g2
I63
sg3
(i__main__
Node
p595
(dp596
g2
I539
sg3
(i__main__
Node
p597
(dp598
g2
I161
sg3
(i__main__
Node
p599
(dp600
g2
I189
sg3
(i__main__
Node
p601
(dp602
g2
I364
sg3
(i__main__
Node
p603
(dp604
g2
I210
sg3
(i__main__
Node
p605
(dp606
g2
I238
sg3
(i__main__
Node
p607
(dp608
g2
Nsg3
Nsg14
I5
sg15
Nsg16
Nsbsg14
I6
sg15
I1
sg16
(i__main__
Node
p609
(dp610
g2
Nsg3
Nsg14
I6
sg15
Nsg16
Nsbsbsg14
I5
sg15
I1
sg16
(i__main__
Node
p611
(dp612
g2
Nsg3
Nsg14
I5
sg15
Nsg16
Nsbsbsg14
I5
sg15
I0
sg16
(i__main__
Node
p613
(dp614
g2
Nsg3
Nsg14
I7
sg15
Nsg16
Nsbsbsg14
I6
sg15
I1
sg16
(i__main__
Node
p615
(dp616
g2
I56
sg3
(i__main__
Node
p617
(dp618
g2
I112
sg3
(i__main__
Node
p619
(dp620
g2
Nsg3
Nsg14
I6
sg15
Nsg16
Nsbsg14
I6
sg15
I9
sg16
(i__main__
Node
p621
(dp622
g2
I147
sg3
(i__main__
Node
p623
(dp624
g2
Nsg3
Nsg14
I7
sg15
Nsg16
Nsbsg14
I7
sg15
I2
sg16
(i__main__
Node
p625
(dp626
g2
Nsg3
Nsg14
I6
sg15
Nsg16
Nsbsbsbsg14
I6
sg15
I4
sg16
(i__main__
Node
p627
(dp628
g2
I84
sg3
(i__main__
Node
p629
(dp630
g2
Nsg3
Nsg14
I7
sg15
Nsg16
Nsbsg14
I7
sg15
I1
sg16
(i__main__
Node
p631
(dp632
g2
Nsg3
Nsg14
I6
sg15
Nsg16
Nsbsbsbsbsg14
I6
sg15
I7
sg16
(i__main__
Node
p633
(dp634
g2
I350
sg3
(i__main__
Node
p635
(dp636
g2
Nsg3
Nsg14
I5
sg15
Nsg16
Nsbsg14
I5
sg15
I0
sg16
(i__main__
Node
p637
(dp638
g2
Nsg3
Nsg14
I6
sg15
Nsg16
Nsbsbsbsg14
I6
sg15
I10
sg16
(i__main__
Node
p639
(dp640
g2
I203
sg3
(i__main__
Node
p641
(dp642
g2
I84
sg3
(i__main__
Node
p643
(dp644
g2
Nsg3
Nsg14
I8
sg15
Nsg16
Nsbsg14
I5
sg15
I4
sg16
(i__main__
Node
p645
(dp646
g2
Nsg3
Nsg14
I5
sg15
Nsg16
Nsbsbsg14
I6
sg15
I2
sg16
(i__main__
Node
p647
(dp648
g2
I413
sg3
(i__main__
Node
p649
(dp650
g2
Nsg3
Nsg14
I5
sg15
Nsg16
Nsbsg14
I6
sg15
I0
sg16
(i__main__
Node
p651
(dp652
g2
Nsg3
Nsg14
I6
sg15
Nsg16
Nsbsbsbsbsg14
I6
sg15
I5
sg16
(i__main__
Node
p653
(dp654
g2
I217
sg3
(i__main__
Node
p655
(dp656
g2
Nsg3
Nsg14
I5
sg15
Nsg16
Nsbsg14
I8
sg15
I2
sg16
(i__main__
Node
p657
(dp658
g2
I21
sg3
(i__main__
Node
p659
(dp660
g2
Nsg3
Nsg14
I6
sg15
Nsg16
Nsbsg14
I8
sg15
I3
sg16
(i__main__
Node
p661
(dp662
g2
Nsg3
Nsg14
I8
sg15
Nsg16
Nsbsbsbsbsbsg14
I6
sg15
I5
sg16
(i__main__
Node
p663
(dp664
g2
I392
sg3
(i__main__
Node
p665
(dp666
g2
Nsg3
Nsg14
I7
sg15
Nsg16
Nsbsg14
I5
sg15
I8
sg16
(i__main__
Node
p667
(dp668
g2
I42
sg3
(i__main__
Node
p669
(dp670
g2
Nsg3
Nsg14
I5
sg15
Nsg16
Nsbsg14
I5
sg15
I4
sg16
(i__main__
Node
p671
(dp672
g2
Nsg3
Nsg14
I7
sg15
Nsg16
Nsbsbsbsbsbsbsg14
I6
sg15
I0
sg16
(i__main__
Node
p673
(dp674
g2
I168
sg3
(i__main__
Node
p675
(dp676
g2
I476
sg3
(i__main__
Node
p677
(dp678
g2
I301
sg3
(i__main__
Node
p679
(dp680
g2
I245
sg3
(i__main__
Node
p681
(dp682
g2
I119
sg3
(i__main__
Node
p683
(dp684
g2
Nsg3
Nsg14
I8
sg15
Nsg16
Nsbsg14
I8
sg15
I1
sg16
(i__main__
Node
p685
(dp686
g2
Nsg3
Nsg14
I6
sg15
Nsg16
Nsbsbsg14
I8
sg15
I6
sg16
(i__main__
Node
p687
(dp688
g2
I322
sg3
(i__main__
Node
p689
(dp690
g2
Nsg3
Nsg14
I5
sg15
Nsg16
Nsbsg14
I6
sg15
I0
sg16
(i__main__
Node
p691
(dp692
g2
Nsg3
Nsg14
I6
sg15
Nsg16
Nsbsbsbsg14
I7
sg15
I0
sg16
(i__main__
Node
p693
(dp694
g2
I392
sg3
(i__main__
Node
p695
(dp696
g2
I105
sg3
(i__main__
Node
p697
(dp698
g2
I175
sg3
(i__main__
Node
p699
(dp700
g2
I532
sg3
(i__main__
Node
p701
(dp702
g2
Nsg3
Nsg14
I7
sg15
Nsg16
Nsbsg14
I7
sg15
I8
sg16
(i__main__
Node
p703
(dp704
g2
Nsg3
Nsg14
I5
sg15
Nsg16
Nsbsbsg14
I7
sg15
I7
sg16
(i__main__
Node
p705
(dp706
g2
I196
sg3
(i__main__
Node
p707
(dp708
g2
Nsg3
Nsg14
I6
sg15
Nsg16
Nsbsg14
I6
sg15
I6
sg16
(i__main__
Node
p709
(dp710
g2
I175
sg3
(i__main__
Node
p711
(dp712
g2
Nsg3
Nsg14
I7
sg15
Nsg16
Nsbsg14
I7
sg15
I2
sg16
(i__main__
Node
p713
(dp714
g2
Nsg3
Nsg14
I6
sg15
Nsg16
Nsbsbsbsbsg14
I7
sg15
I1
sg16
(i__main__
Node
p715
(dp716
g2
I28
sg3
(i__main__
Node
p717
(dp718
g2
I651
sg3
(i__main__
Node
p719
(dp720
g2
Nsg3
Nsg14
I7
sg15
Nsg16
Nsbsg14
I8
sg15
I10
sg16
(i__main__
Node
p721
(dp722
g2
Nsg3
Nsg14
I8
sg15
Nsg16
Nsbsbsg14
I7
sg15
I3
sg16
(i__main__
Node
p723
(dp724
g2
Nsg3
Nsg14
I7
sg15
Nsg16
Nsbsbsbsg14
I7
sg15
I9
sg16
(i__main__
Node
p725
(dp726
g2
I84
sg3
(i__main__
Node
p727
(dp728
g2
I224
sg3
(i__main__
Node
p729
(dp730
g2
I245
sg3
(i__main__
Node
p731
(dp732
g2
I322
sg3
(i__main__
Node
p733
(dp734
g2
I287
sg3
(i__main__
Node
p735
(dp736
g2
Nsg3
Nsg14
I6
sg15
Nsg16
Nsbsg14
I6
sg15
I0
sg16
(i__main__
Node
p737
(dp738
g2
Nsg3
Nsg14
I8
sg15
Nsg16
Nsbsbsg14
I7
sg15
I6
sg16
(i__main__
Node
p739
(dp740
g2
I182
sg3
(i__main__
Node
p741
(dp742
g2
Nsg3
Nsg14
I7
sg15
Nsg16
Nsbsg14
I7
sg15
I1
sg16
(i__main__
Node
p743
(dp744
g2
I238
sg3
(i__main__
Node
p745
(dp746
g2
Nsg3
Nsg14
I6
sg15
Nsg16
Nsbsg14
I7
sg15
I3
sg16
(i__main__
Node
p747
(dp748
g2
Nsg3
Nsg14
I7
sg15
Nsg16
Nsbsbsbsbsg14
I6
sg15
I0
sg16
(i__main__
Node
p749
(dp750
g2
I322
sg3
(i__main__
Node
p751
(dp752
g2
Nsg3
Nsg14
I8
sg15
Nsg16
Nsbsg14
I6
sg15
I3
sg16
(i__main__
Node
p753
(dp754
g2
I182
sg3
(i__main__
Node
p755
(dp756
g2
Nsg3
Nsg14
I8
sg15
Nsg16
Nsbsg14
I6
sg15
I5
sg16
(i__main__
Node
p757
(dp758
g2
Nsg3
Nsg14
I6
sg15
Nsg16
Nsbsbsbsbsg14
I7
sg15
I7
sg16
(i__main__
Node
p759
(dp760
g2
I98
sg3
(i__main__
Node
p761
(dp762
g2
I161
sg3
(i__main__
Node
p763
(dp764
g2
Nsg3
Nsg14
I7
sg15
Nsg16
Nsbsg14
I7
sg15
I6
sg16
(i__main__
Node
p765
(dp766
g2
Nsg3
Nsg14
I6
sg15
Nsg16
Nsbsbsg14
I7
sg15
I3
sg16
(i__main__
Node
p767
(dp768
g2
Nsg3
Nsg14
I6
sg15
Nsg16
Nsbsbsbsg14
I6
sg15
I3
sg16
(i__main__
Node
p769
(dp770
g2
I245
sg3
(i__main__
Node
p771
(dp772
g2
I70
sg3
(i__main__
Node
p773
(dp774
g2
I98
sg3
(i__main__
Node
p775
(dp776
g2
I357
sg3
(i__main__
Node
p777
(dp778
g2
Nsg3
Nsg14
I6
sg15
Nsg16
Nsbsg14
I7
sg15
I6
sg16
(i__main__
Node
p779
(dp780
g2
I203
sg3
(i__main__
Node
p781
(dp782
g2
I287
sg3
(i__main__
Node
p783
(dp784
g2
Nsg3
Nsg14
I7
sg15
Nsg16
Nsbsg14
I5
sg15
I0
sg16
(i__main__
Node
p785
(dp786
g2
Nsg3
Nsg14
I5
sg15
Nsg16
Nsbsbsg14
I7
sg15
I2
sg16
(i__main__
Node
p787
(dp788
g2
Nsg3
Nsg14
I7
sg15
Nsg16
Nsbsbsbsg14
I7
sg15
I5
sg16
(i__main__
Node
p789
(dp790
g2
I140
sg3
(i__main__
Node
p791
(dp792
g2
Nsg3
Nsg14
I5
sg15
Nsg16
Nsbsg14
I5
sg15
I1
sg16
(i__main__
Node
p793
(dp794
g2
Nsg3
Nsg14
I6
sg15
Nsg16
Nsbsbsbsg14
I5
sg15
I4
sg16
(i__main__
Node
p795
(dp796
g2
I273
sg3
(i__main__
Node
p797
(dp798
g2
Nsg3
Nsg14
I6
sg15
Nsg16
Nsbsg14
I5
sg15
I9
sg16
(i__main__
Node
p799
(dp800
g2
Nsg3
Nsg14
I5
sg15
Nsg16
Nsbsbsbsg14
I6
sg15
I6
sg16
(i__main__
Node
p801
(dp802
g2
I168
sg3
(i__main__
Node
p803
(dp804
g2
I14
sg3
(i__main__
Node
p805
(dp806
g2
I245
sg3
(i__main__
Node
p807
(dp808
g2
I203
sg3
(i__main__
Node
p809
(dp810
g2
Nsg3
Nsg14
I8
sg15
Nsg16
Nsbsg14
I7
sg15
I1
sg16
(i__main__
Node
p811
(dp812
g2
Nsg3
Nsg14
I7
sg15
Nsg16
Nsbsbsg14
I7
sg15
I0
sg16
(i__main__
Node
p813
(dp814
g2
I224
sg3
(i__main__
Node
p815
(dp816
g2
Nsg3
Nsg14
I6
sg15
Nsg16
Nsbsg14
I6
sg15
I0
sg16
(i__main__
Node
p817
(dp818
g2
I539
sg3
(i__main__
Node
p819
(dp820
g2
I588
sg3
(i__main__
Node
p821
(dp822
g2
Nsg3
Nsg14
I8
sg15
Nsg16
Nsbsg14
I7
sg15
I8
sg16
(i__main__
Node
p823
(dp824
g2
Nsg3
Nsg14
I7
sg15
Nsg16
Nsbsbsg14
I7
sg15
I8
sg16
(i__main__
Node
p825
(dp826
g2
Nsg3
Nsg14
I6
sg15
Nsg16
Nsbsbsbsbsg14
I6
sg15
I3
sg16
(i__main__
Node
p827
(dp828
g2
I210
sg3
(i__main__
Node
p829
(dp830
g2
I224
sg3
(i__main__
Node
p831
(dp832
g2
Nsg3
Nsg14
I8
sg15
Nsg16
Nsbsg14
I8
sg15
I0
sg16
(i__main__
Node
p833
(dp834
g2
Nsg3
Nsg14
I3
sg15
Nsg16
Nsbsbsg14
I6
sg15
I6
sg16
(i__main__
Node
p835
(dp836
g2
Nsg3
Nsg14
I6
sg15
Nsg16
Nsbsbsbsg14
I6
sg15
I6
sg16
(i__main__
Node
p837
(dp838
g2
I203
sg3
(i__main__
Node
p839
(dp840
g2
Nsg3
Nsg14
I5
sg15
Nsg16
Nsbsg14
I5
sg15
I2
sg16
(i__main__
Node
p841
(dp842
g2
I196
sg3
(i__main__
Node
p843
(dp844
g2
Nsg3
Nsg14
I7
sg15
Nsg16
Nsbsg14
I6
sg15
I0
sg16
(i__main__
Node
p845
(dp846
g2
Nsg3
Nsg14
I6
sg15
Nsg16
Nsbsbsbsbsbsbsbsbsg14
I6
sg15
I8
sg16
(i__main__
Node
p847
(dp848
g2
I112
sg3
(i__main__
Node
p849
(dp850
g2
I245
sg3
(i__main__
Node
p851
(dp852
g2
I231
sg3
(i__main__
Node
p853
(dp854
g2
I588
sg3
(i__main__
Node
p855
(dp856
g2
I196
sg3
(i__main__
Node
p857
(dp858
g2
Nsg3
Nsg14
I5
sg15
Nsg16
Nsbsg14
I8
sg15
I2
sg16
(i__main__
Node
p859
(dp860
g2
Nsg3
Nsg14
I8
sg15
Nsg16
Nsbsbsg14
I6
sg15
I10
sg16
(i__main__
Node
p861
(dp862
g2
I280
sg3
(i__main__
Node
p863
(dp864
g2
I133
sg3
(i__main__
Node
p865
(dp866
g2
Nsg3
Nsg14
I6
sg15
Nsg16
Nsbsg14
I6
sg15
I6
sg16
(i__main__
Node
p867
(dp868
g2
Nsg3
Nsg14
I3
sg15
Nsg16
Nsbsbsg14
I6
sg15
I3
sg16
(i__main__
Node
p869
(dp870
g2
I273
sg3
(i__main__
Node
p871
(dp872
g2
I294
sg3
(i__main__
Node
p873
(dp874
g2
I98
sg3
(i__main__
Node
p875
(dp876
g2
Nsg3
Nsg14
I6
sg15
Nsg16
Nsbsg14
I6
sg15
I3
sg16
(i__main__
Node
p877
(dp878
g2
Nsg3
Nsg14
I5
sg15
Nsg16
Nsbsbsg14
I6
sg15
I0
sg16
(i__main__
Node
p879
(dp880
g2
I224
sg3
(i__main__
Node
p881
(dp882
g2
I133
sg3
(i__main__
Node
p883
(dp884
g2
Nsg3
Nsg14
I6
sg15
Nsg16
Nsbsg14
I6
sg15
I1
sg16
(i__main__
Node
p885
(dp886
g2
I259
sg3
(i__main__
Node
p887
(dp888
g2
Nsg3
Nsg14
I5
sg15
Nsg16
Nsbsg14
I5
sg15
I0
sg16
(i__main__
Node
p889
(dp890
g2
Nsg3
Nsg14
I6
sg15
Nsg16
Nsbsbsbsg14
I5
sg15
I6
sg16
(i__main__
Node
p891
(dp892
g2
Nsg3
Nsg14
I5
sg15
Nsg16
Nsbsbsbsg14
I6
sg15
I8
sg16
(i__main__
Node
p893
(dp894
g2
Nsg3
Nsg14
I8
sg15
Nsg16
Nsbsbsbsbsg14
I6
sg15
I7
sg16
(i__main__
Node
p895
(dp896
g2
I56
sg3
(i__main__
Node
p897
(dp898
g2
I154
sg3
(i__main__
Node
p899
(dp900
g2
I70
sg3
(i__main__
Node
p901
(dp902
g2
I105
sg3
(i__main__
Node
p903
(dp904
g2
I322
sg3
(i__main__
Node
p905
(dp906
g2
Nsg3
Nsg14
I6
sg15
Nsg16
Nsbsg14
I7
sg15
I0
sg16
(i__main__
Node
p907
(dp908
g2
Nsg3
Nsg14
I7
sg15
Nsg16
Nsbsbsg14
I6
sg15
I4
sg16
(i__main__
Node
p909
(dp910
g2
Nsg3
Nsg14
I6
sg15
Nsg16
Nsbsbsg14
I7
sg15
I4
sg16
(i__main__
Node
p911
(dp912
g2
I147
sg3
(i__main__
Node
p913
(dp914
g2
Nsg3
Nsg14
I6
sg15
Nsg16
Nsbsg14
I7
sg15
I5
sg16
(i__main__
Node
p915
(dp916
g2
Nsg3
Nsg14
I7
sg15
Nsg16
Nsbsbsbsg14
I7
sg15
I9
sg16
(i__main__
Node
p917
(dp918
g2
I140
sg3
(i__main__
Node
p919
(dp920
g2
Nsg3
Nsg14
I7
sg15
Nsg16
Nsbsg14
I7
sg15
I1
sg16
(i__main__
Node
p921
(dp922
g2
Nsg3
Nsg14
I5
sg15
Nsg16
Nsbsbsbsg14
I6
sg15
I3
sg16
(i__main__
Node
p923
(dp924
g2
I119
sg3
(i__main__
Node
p925
(dp926
g2
I133
sg3
(i__main__
Node
p927
(dp928
g2
I266
sg3
(i__main__
Node
p929
(dp930
g2
I182
sg3
(i__main__
Node
p931
(dp932
g2
Nsg3
Nsg14
I6
sg15
Nsg16
Nsbsg14
I5
sg15
I5
sg16
(i__main__
Node
p933
(dp934
g2
Nsg3
Nsg14
I5
sg15
Nsg16
Nsbsbsg14
I6
sg15
I0
sg16
(i__main__
Node
p935
(dp936
g2
Nsg3
Nsg14
I6
sg15
Nsg16
Nsbsbsg14
I6
sg15
I5
sg16
(i__main__
Node
p937
(dp938
g2
I196
sg3
(i__main__
Node
p939
(dp940
g2
Nsg3
Nsg14
I7
sg15
Nsg16
Nsbsg14
I7
sg15
I2
sg16
(i__main__
Node
p941
(dp942
g2
I301
sg3
(i__main__
Node
p943
(dp944
g2
Nsg3
Nsg14
I6
sg15
Nsg16
Nsbsg14
I6
sg15
I0
sg16
(i__main__
Node
p945
(dp946
g2
Nsg3
Nsg14
I8
sg15
Nsg16
Nsbsbsbsbsg14
I6
sg15
I5
sg16
(i__main__
Node
p947
(dp948
g2
I364
sg3
(i__main__
Node
p949
(dp950
g2
I189
sg3
(i__main__
Node
p951
(dp952
g2
I322
sg3
(i__main__
Node
p953
(dp954
g2
Nsg3
Nsg14
I6
sg15
Nsg16
Nsbsg14
I5
sg15
I0
sg16
(i__main__
Node
p955
(dp956
g2
Nsg3
Nsg14
I5
sg15
Nsg16
Nsbsbsg14
I6
sg15
I1
sg16
(i__main__
Node
p957
(dp958
g2
I280
sg3
(i__main__
Node
p959
(dp960
g2
Nsg3
Nsg14
I6
sg15
Nsg16
Nsbsg14
I6
sg15
I6
sg16
(i__main__
Node
p961
(dp962
g2
I70
sg3
(i__main__
Node
p963
(dp964
g2
I497
sg3
(i__main__
Node
p965
(dp966
g2
Nsg3
Nsg14
I5
sg15
Nsg16
Nsbsg14
I6
sg15
I9
sg16
(i__main__
Node
p967
(dp968
g2
Nsg3
Nsg14
I6
sg15
Nsg16
Nsbsbsg14
I6
sg15
I5
sg16
(i__main__
Node
p969
(dp970
g2
Nsg3
Nsg14
I5
sg15
Nsg16
Nsbsbsbsbsg14
I6
sg15
I8
sg16
(i__main__
Node
p971
(dp972
g2
Nsg3
Nsg14
I6
sg15
Nsg16
Nsbsbsbsbsbsg14
I6
sg15
I0
sg16
(i__main__
Node
p973
(dp974
g2
I154
sg3
(i__main__
Node
p975
(dp976
g2
I420
sg3
(i__main__
Node
p977
(dp978
g2
Nsg3
Nsg14
I6
sg15
Nsg16
Nsbsg14
I6
sg15
I8
sg16
(i__main__
Node
p979
(dp980
g2
I112
sg3
(i__main__
Node
p981
(dp982
g2
Nsg3
Nsg14
I7
sg15
Nsg16
Nsbsg14
I6
sg15
I4
sg16
(i__main__
Node
p983
(dp984
g2
I168
sg3
(i__main__
Node
p985
(dp986
g2
I42
sg3
(i__main__
Node
p987
(dp988
g2
Nsg3
Nsg14
I6
sg15
Nsg16
Nsbsg14
I6
sg15
I4
sg16
(i__main__
Node
p989
(dp990
g2
Nsg3
Nsg14
I7
sg15
Nsg16
Nsbsbsg14
I6
sg15
I1
sg16
(i__main__
Node
p991
(dp992
g2
I224
sg3
(i__main__
Node
p993
(dp994
g2
Nsg3
Nsg14
I6
sg15
Nsg16
Nsbsg14
I7
sg15
I2
sg16
(i__main__
Node
p995
(dp996
g2
Nsg3
Nsg14
I7
sg15
Nsg16
Nsbsbsbsbsbsg14
I6
sg15
I1
sg16
(i__main__
Node
p997
(dp998
g2
I224
sg3
(i__main__
Node
p999
(dp1000
g2
I315
sg3
(i__main__
Node
p1001
(dp1002
g2
Nsg3
Nsg14
I8
sg15
Nsg16
Nsbsg14
I8
sg15
I8
sg16
(i__main__
Node
p1003
(dp1004
g2
Nsg3
Nsg14
I6
sg15
Nsg16
Nsbsbsg14
I7
sg15
I9
sg16
(i__main__
Node
p1005
(dp1006
g2
I238
sg3
(i__main__
Node
p1007
(dp1008
g2
I133
sg3
(i__main__
Node
p1009
(dp1010
g2
Nsg3
Nsg14
I7
sg15
Nsg16
Nsbsg14
I6
sg15
I1
sg16
(i__main__
Node
p1011
(dp1012
g2
Nsg3
Nsg14
I6
sg15
Nsg16
Nsbsbsg14
I7
sg15
I0
sg16
(i__main__
Node
p1013
(dp1014
g2
Nsg3
Nsg14
I7
sg15
Nsg16
Nsbsbsbsbsbsg14
I6
sg15
I1
sg16
(i__main__
Node
p1015
(dp1016
g2
I196
sg3
(i__main__
Node
p1017
(dp1018
g2
Nsg3
Nsg14
I7
sg15
Nsg16
Nsbsg14
I6
sg15
I3
sg16
(i__main__
Node
p1019
(dp1020
g2
I266
sg3
(i__main__
Node
p1021
(dp1022
g2
I441
sg3
(i__main__
Node
p1023
(dp1024
g2
I49
sg3
(i__main__
Node
p1025
(dp1026
g2
Nsg3
Nsg14
I6
sg15
Nsg16
Nsbsg14
I6
sg15
I1
sg16
(i__main__
Node
p1027
(dp1028
g2
Nsg3
Nsg14
I7
sg15
Nsg16
Nsbsbsg14
I6
sg15
I8
sg16
(i__main__
Node
p1029
(dp1030
g2
I210
sg3
(i__main__
Node
p1031
(dp1032
g2
Nsg3
Nsg14
I7
sg15
Nsg16
Nsbsg14
I7
sg15
I5
sg16
(i__main__
Node
p1033
(dp1034
g2
I56
sg3
(i__main__
Node
p1035
(dp1036
g2
I343
sg3
(i__main__
Node
p1037
(dp1038
g2
I70
sg3
(i__main__
Node
p1039
(dp1040
g2
I357
sg3
(i__main__
Node
p1041
(dp1042
g2
I504
sg3
(i__main__
Node
p1043
(dp1044
g2
I511
sg3
(i__main__
Node
p1045
(dp1046
g2
Nsg3
Nsg14
I7
sg15
Nsg16
Nsbsg14
I6
sg15
I9
sg16
(i__main__
Node
p1047
(dp1048
g2
I189
sg3
(i__main__
Node
p1049
(dp1050
g2
Nsg3
Nsg14
I6
sg15
Nsg16
Nsbsg14
I6
sg15
I0
sg16
(i__main__
Node
p1051
(dp1052
g2
I105
sg3
(i__main__
Node
p1053
(dp1054
g2
Nsg3
Nsg14
I7
sg15
Nsg16
Nsbsg14
I6
sg15
I1
sg16
(i__main__
Node
p1055
(dp1056
g2
Nsg3
Nsg14
I6
sg15
Nsg16
Nsbsbsbsbsg14
I6
sg15
I10
sg16
(i__main__
Node
p1057
(dp1058
g2
Nsg3
Nsg14
I6
sg15
Nsg16
Nsbsbsg14
I6
sg15
I8
sg16
(i__main__
Node
p1059
(dp1060
g2
I301
sg3
(i__main__
Node
p1061
(dp1062
g2
Nsg3
Nsg14
I6
sg15
Nsg16
Nsbsg14
I7
sg15
I0
sg16
(i__main__
Node
p1063
(dp1064
g2
Nsg3
Nsg14
I7
sg15
Nsg16
Nsbsbsbsg14
I6
sg15
I5
sg16
(i__main__
Node
p1065
(dp1066
g2
Nsg3
Nsg14
I7
sg15
Nsg16
Nsbsbsg14
I6
sg15
I8
sg16
(i__main__
Node
p1067
(dp1068
g2
Nsg3
Nsg14
I6
sg15
Nsg16
Nsbsbsg14
I6
sg15
I5
sg16
(i__main__
Node
p1069
(dp1070
g2
I392
sg3
(i__main__
Node
p1071
(dp1072
g2
I294
sg3
(i__main__
Node
p1073
(dp1074
g2
Nsg3
Nsg14
I7
sg15
Nsg16
Nsbsg14
I6
sg15
I0
sg16
(i__main__
Node
p1075
(dp1076
g2
Nsg3
Nsg14
I6
sg15
Nsg16
Nsbsbsg14
I7
sg15
I8
sg16
(i__main__
Node
p1077
(dp1078
g2
Nsg3
Nsg14
I7
sg15
Nsg16
Nsbsbsbsbsbsg14
I6
sg15
I8
sg16
(i__main__
Node
p1079
(dp1080
g2
Nsg3
Nsg14
I6
sg15
Nsg16
Nsbsbsbsbsbsg14
I6
sg15
I2
sg16
(i__main__
Node
p1081
(dp1082
g2
I623
sg3
(i__main__
Node
p1083
(dp1084
g2
I140
sg3
(i__main__
Node
p1085
(dp1086
g2
I112
sg3
(i__main__
Node
p1087
(dp1088
g2
I98
sg3
(i__main__
Node
p1089
(dp1090
g2
Nsg3
Nsg14
I6
sg15
Nsg16
Nsbsg14
I7
sg15
I4
sg16
(i__main__
Node
p1091
(dp1092
g2
Nsg3
Nsg14
I7
sg15
Nsg16
Nsbsbsg14
I7
sg15
I1
sg16
(i__main__
Node
p1093
(dp1094
g2
Nsg3
Nsg14
I6
sg15
Nsg16
Nsbsbsg14
I7
sg15
I2
sg16
(i__main__
Node
p1095
(dp1096
g2
I98
sg3
(i__main__
Node
p1097
(dp1098
g2
Nsg3
Nsg14
I6
sg15
Nsg16
Nsbsg14
I6
sg15
I2
sg16
(i__main__
Node
p1099
(dp1100
g2
Nsg3
Nsg14
I8
sg15
Nsg16
Nsbsbsbsg14
I6
sg15
I10
sg16
(i__main__
Node
p1101
(dp1102
g2
I392
sg3
(i__main__
Node
p1103
(dp1104
g2
I91
sg3
(i__main__
Node
p1105
(dp1106
g2
I469
sg3
(i__main__
Node
p1107
(dp1108
g2
I539
sg3
(i__main__
Node
p1109
(dp1110
g2
I119
sg3
(i__main__
Node
p1111
(dp1112
g2
Nsg3
Nsg14
I6
sg15
Nsg16
Nsbsg14
I5
sg15
I4
sg16
(i__main__
Node
p1113
(dp1114
g2
I112
sg3
(i__main__
Node
p1115
(dp1116
g2
Nsg3
Nsg14
I5
sg15
Nsg16
Nsbsg14
I5
sg15
I0
sg16
(i__main__
Node
p1117
(dp1118
g2
Nsg3
Nsg14
I6
sg15
Nsg16
Nsbsbsbsg14
I6
sg15
I8
sg16
(i__main__
Node
p1119
(dp1120
g2
Nsg3
Nsg14
I6
sg15
Nsg16
Nsbsbsg14
I6
sg15
I8
sg16
(i__main__
Node
p1121
(dp1122
g2
I168
sg3
(i__main__
Node
p1123
(dp1124
g2
I98
sg3
(i__main__
Node
p1125
(dp1126
g2
Nsg3
Nsg14
I7
sg15
Nsg16
Nsbsg14
I7
sg15
I4
sg16
(i__main__
Node
p1127
(dp1128
g2
Nsg3
Nsg14
I6
sg15
Nsg16
Nsbsbsg14
I7
sg15
I0
sg16
(i__main__
Node
p1129
(dp1130
g2
Nsg3
Nsg14
I5
sg15
Nsg16
Nsbsbsbsg14
I6
sg15
I4
sg16
(i__main__
Node
p1131
(dp1132
g2
I553
sg3
(i__main__
Node
p1133
(dp1134
g2
Nsg3
Nsg14
I6
sg15
Nsg16
Nsbsg14
I6
sg15
I10
sg16
(i__main__
Node
p1135
(dp1136
g2
I147
sg3
(i__main__
Node
p1137
(dp1138
g2
Nsg3
Nsg14
I6
sg15
Nsg16
Nsbsg14
I7
sg15
I3
sg16
(i__main__
Node
p1139
(dp1140
g2
I602
sg3
(i__main__
Node
p1141
(dp1142
g2
Nsg3
Nsg14
I6
sg15
Nsg16
Nsbsg14
I7
sg15
I8
sg16
(i__main__
Node
p1143
(dp1144
g2
I259
sg3
(i__main__
Node
p1145
(dp1146
g2
I147
sg3
(i__main__
Node
p1147
(dp1148
g2
Nsg3
Nsg14
I7
sg15
Nsg16
Nsbsg14
I6
sg15
I5
sg16
(i__main__
Node
p1149
(dp1150
g2
Nsg3
Nsg14
I6
sg15
Nsg16
Nsbsbsg14
I7
sg15
I1
sg16
(i__main__
Node
p1151
(dp1152
g2
Nsg3
Nsg14
I7
sg15
Nsg16
Nsbsbsbsbsbsbsg14
I6
sg15
I8
sg16
(i__main__
Node
p1153
(dp1154
g2
I315
sg3
(i__main__
Node
p1155
(dp1156
g2
I259
sg3
(i__main__
Node
p1157
(dp1158
g2
Nsg3
Nsg14
I7
sg15
Nsg16
Nsbsg14
I7
sg15
I0
sg16
(i__main__
Node
p1159
(dp1160
g2
Nsg3
Nsg14
I8
sg15
Nsg16
Nsbsbsg14
I6
sg15
I3
sg16
(i__main__
Node
p1161
(dp1162
g2
I210
sg3
(i__main__
Node
p1163
(dp1164
g2
I154
sg3
(i__main__
Node
p1165
(dp1166
g2
I217
sg3
(i__main__
Node
p1167
(dp1168
g2
I231
sg3
(i__main__
Node
p1169
(dp1170
g2
Nsg3
Nsg14
I6
sg15
Nsg16
Nsbsg14
I6
sg15
I1
sg16
(i__main__
Node
p1171
(dp1172
g2
I336
sg3
(i__main__
Node
p1173
(dp1174
g2
Nsg3
Nsg14
I6
sg15
Nsg16
Nsbsg14
I5
sg15
I0
sg16
(i__main__
Node
p1175
(dp1176
g2
Nsg3
Nsg14
I5
sg15
Nsg16
Nsbsbsbsg14
I6
sg15
I6
sg16
(i__main__
Node
p1177
(dp1178
g2
I140
sg3
(i__main__
Node
p1179
(dp1180
g2
Nsg3
Nsg14
I5
sg15
Nsg16
Nsbsg14
I4
sg15
I2
sg16
(i__main__
Node
p1181
(dp1182
g2
Nsg3
Nsg14
I4
sg15
Nsg16
Nsbsbsbsg14
I6
sg15
I9
sg16
(i__main__
Node
p1183
(dp1184
g2
Nsg3
Nsg14
I6
sg15
Nsg16
Nsbsbsg14
I6
sg15
I1
sg16
(i__main__
Node
p1185
(dp1186
g2
I588
sg3
(i__main__
Node
p1187
(dp1188
g2
I287
sg3
(i__main__
Node
p1189
(dp1190
g2
Nsg3
Nsg14
I6
sg15
Nsg16
Nsbsg14
I6
sg15
I0
sg16
(i__main__
Node
p1191
(dp1192
g2
Nsg3
Nsg14
I4
sg15
Nsg16
Nsbsbsg14
I6
sg15
I10
sg16
(i__main__
Node
p1193
(dp1194
g2
Nsg3
Nsg14
I6
sg15
Nsg16
Nsbsbsbsbsbsbsbsbsbsg14
I6
sg15
I5
sg16
(i__main__
Node
p1195
(dp1196
g2
I147
sg3
(i__main__
Node
p1197
(dp1198
g2
I532
sg3
(i__main__
Node
p1199
(dp1200
g2
I210
sg3
(i__main__
Node
p1201
(dp1202
g2
Nsg3
Nsg14
I3
sg15
Nsg16
Nsbsg14
I3
sg15
I2
sg16
(i__main__
Node
p1203
(dp1204
g2
I266
sg3
(i__main__
Node
p1205
(dp1206
g2
Nsg3
Nsg14
I4
sg15
Nsg16
Nsbsg14
I5
sg15
I0
sg16
(i__main__
Node
p1207
(dp1208
g2
Nsg3
Nsg14
I5
sg15
Nsg16
Nsbsbsbsg14
I6
sg15
I8
sg16
(i__main__
Node
p1209
(dp1210
g2
I175
sg3
(i__main__
Node
p1211
(dp1212
g2
I273
sg3
(i__main__
Node
p1213
(dp1214
g2
I273
sg3
(i__main__
Node
p1215
(dp1216
g2
Nsg3
Nsg14
I6
sg15
Nsg16
Nsbsg14
I6
sg15
I0
sg16
(i__main__
Node
p1217
(dp1218
g2
I231
sg3
(i__main__
Node
p1219
(dp1220
g2
Nsg3
Nsg14
I6
sg15
Nsg16
Nsbsg14
I5
sg15
I1
sg16
(i__main__
Node
p1221
(dp1222
g2
Nsg3
Nsg14
I5
sg15
Nsg16
Nsbsbsbsg14
I6
sg15
I3
sg16
(i__main__
Node
p1223
(dp1224
g2
I301
sg3
(i__main__
Node
p1225
(dp1226
g2
I343
sg3
(i__main__
Node
p1227
(dp1228
g2
Nsg3
Nsg14
I7
sg15
Nsg16
Nsbsg14
I7
sg15
I0
sg16
(i__main__
Node
p1229
(dp1230
g2
Nsg3
Nsg14
I5
sg15
Nsg16
Nsbsbsg14
I7
sg15
I0
sg16
(i__main__
Node
p1231
(dp1232
g2
Nsg3
Nsg14
I8
sg15
Nsg16
Nsbsbsbsg14
I6
sg15
I3
sg16
(i__main__
Node
p1233
(dp1234
g2
I14
sg3
(i__main__
Node
p1235
(dp1236
g2
I623
sg3
(i__main__
Node
p1237
(dp1238
g2
Nsg3
Nsg14
I6
sg15
Nsg16
Nsbsg14
I6
sg15
I10
sg16
(i__main__
Node
p1239
(dp1240
g2
I77
sg3
(i__main__
Node
p1241
(dp1242
g2
Nsg3
Nsg14
I5
sg15
Nsg16
Nsbsg14
I5
sg15
I4
sg16
(i__main__
Node
p1243
(dp1244
g2
Nsg3
Nsg14
I6
sg15
Nsg16
Nsbsbsbsg14
I6
sg15
I5
sg16
(i__main__
Node
p1245
(dp1246
g2
I112
sg3
(i__main__
Node
p1247
(dp1248
g2
Nsg3
Nsg14
I6
sg15
Nsg16
Nsbsg14
I4
sg15
I4
sg16
(i__main__
Node
p1249
(dp1250
g2
I280
sg3
(i__main__
Node
p1251
(dp1252
g2
Nsg3
Nsg14
I6
sg15
Nsg16
Nsbsg14
I4
sg15
I1
sg16
(i__main__
Node
p1253
(dp1254
g2
I133
sg3
(i__main__
Node
p1255
(dp1256
g2
I294
sg3
(i__main__
Node
p1257
(dp1258
g2
I406
sg3
(i__main__
Node
p1259
(dp1260
g2
Nsg3
Nsg14
I5
sg15
Nsg16
Nsbsg14
I4
sg15
I8
sg16
(i__main__
Node
p1261
(dp1262
g2
Nsg3
Nsg14
I4
sg15
Nsg16
Nsbsbsg14
I5
sg15
I0
sg16
(i__main__
Node
p1263
(dp1264
g2
Nsg3
Nsg14
I5
sg15
Nsg16
Nsbsbsg14
I4
sg15
I9
sg16
(i__main__
Node
p1265
(dp1266
g2
Nsg3
Nsg14
I4
sg15
Nsg16
Nsbsbsbsbsbsbsbsg14
I6
sg15
I2
sg16
(i__main__
Node
p1267
(dp1268
g2
I637
sg3
(i__main__
Node
p1269
(dp1270
g2
I84
sg3
(i__main__
Node
p1271
(dp1272
g2
Nsg3
Nsg14
I7
sg15
Nsg16
Nsbsg14
I7
sg15
I0
sg16
(i__main__
Node
p1273
(dp1274
g2
Nsg3
Nsg14
I5
sg15
Nsg16
Nsbsbsg14
I4
sg15
I10
sg16
(i__main__
Node
p1275
(dp1276
g2
I350
sg3
(i__main__
Node
p1277
(dp1278
g2
Nsg3
Nsg14
I5
sg15
Nsg16
Nsbsg14
I4
sg15
I0
sg16
(i__main__
Node
p1279
(dp1280
g2
Nsg3
Nsg14
I4
sg15
Nsg16
Nsbsbsbsbsbsg14
I6
sg15
I10
sg16
(i__main__
Node
p1281
(dp1282
g2
I182
sg3
(i__main__
Node
p1283
(dp1284
g2
I336
sg3
(i__main__
Node
p1285
(dp1286
g2
I63
sg3
(i__main__
Node
p1287
(dp1288
g2
I322
sg3
(i__main__
Node
p1289
(dp1290
g2
I483
sg3
(i__main__
Node
p1291
(dp1292
g2
I105
sg3
(i__main__
Node
p1293
(dp1294
g2
I560
sg3
(i__main__
Node
p1295
(dp1296
g2
I217
sg3
(i__main__
Node
p1297
(dp1298
g2
Nsg3
Nsg14
I5
sg15
Nsg16
Nsbsg14
I6
sg15
I2
sg16
(i__main__
Node
p1299
(dp1300
g2
I84
sg3
(i__main__
Node
p1301
(dp1302
g2
Nsg3
Nsg14
I6
sg15
Nsg16
Nsbsg14
I6
sg15
I5
sg16
(i__main__
Node
p1303
(dp1304
g2
Nsg3
Nsg14
I5
sg15
Nsg16
Nsbsbsbsg14
I5
sg15
I8
sg16
(i__main__
Node
p1305
(dp1306
g2
I112
sg3
(i__main__
Node
p1307
(dp1308
g2
Nsg3
Nsg14
I5
sg15
Nsg16
Nsbsg14
I5
sg15
I4
sg16
(i__main__
Node
p1309
(dp1310
g2
Nsg3
Nsg14
I6
sg15
Nsg16
Nsbsbsbsg14
I5
sg15
I4
sg16
(i__main__
Node
p1311
(dp1312
g2
I273
sg3
(i__main__
Node
p1313
(dp1314
g2
I182
sg3
(i__main__
Node
p1315
(dp1316
g2
I189
sg3
(i__main__
Node
p1317
(dp1318
g2
Nsg3
Nsg14
I7
sg15
Nsg16
Nsbsg14
I7
sg15
I0
sg16
(i__main__
Node
p1319
(dp1320
g2
Nsg3
Nsg14
I5
sg15
Nsg16
Nsbsbsg14
I6
sg15
I2
sg16
(i__main__
Node
p1321
(dp1322
g2
I308
sg3
(i__main__
Node
p1323
(dp1324
g2
Nsg3
Nsg14
I7
sg15
Nsg16
Nsbsg14
I6
sg15
I1
sg16
(i__main__
Node
p1325
(dp1326
g2
Nsg3
Nsg14
I6
sg15
Nsg16
Nsbsbsbsg14
I5
sg15
I9
sg16
(i__main__
Node
p1327
(dp1328
g2
I126
sg3
(i__main__
Node
p1329
(dp1330
g2
I168
sg3
(i__main__
Node
p1331
(dp1332
g2
Nsg3
Nsg14
I5
sg15
Nsg16
Nsbsg14
I7
sg15
I0
sg16
(i__main__
Node
p1333
(dp1334
g2
Nsg3
Nsg14
I7
sg15
Nsg16
Nsbsbsg14
I5
sg15
I2
sg16
(i__main__
Node
p1335
(dp1336
g2
Nsg3
Nsg14
I5
sg15
Nsg16
Nsbsbsbsbsg14
I5
sg15
I8
sg16
(i__main__
Node
p1337
(dp1338
g2
I329
sg3
(i__main__
Node
p1339
(dp1340
g2
I280
sg3
(i__main__
Node
p1341
(dp1342
g2
Nsg3
Nsg14
I5
sg15
Nsg16
Nsbsg14
I4
sg15
I2
sg16
(i__main__
Node
p1343
(dp1344
g2
Nsg3
Nsg14
I4
sg15
Nsg16
Nsbsbsg14
I6
sg15
I1
sg16
(i__main__
Node
p1345
(dp1346
g2
I259
sg3
(i__main__
Node
p1347
(dp1348
g2
I385
sg3
(i__main__
Node
p1349
(dp1350
g2
I217
sg3
(i__main__
Node
p1351
(dp1352
g2
Nsg3
Nsg14
I6
sg15
Nsg16
Nsbsg14
I6
sg15
I2
sg16
(i__main__
Node
p1353
(dp1354
g2
I287
sg3
(i__main__
Node
p1355
(dp1356
g2
I371
sg3
(i__main__
Node
p1357
(dp1358
g2
I413
sg3
(i__main__
Node
p1359
(dp1360
g2
Nsg3
Nsg14
I5
sg15
Nsg16
Nsbsg14
I5
sg15
I0
sg16
(i__main__
Node
p1361
(dp1362
g2
Nsg3
Nsg14
I6
sg15
Nsg16
Nsbsbsg14
I5
sg15
I0
sg16
(i__main__
Node
p1363
(dp1364
g2
Nsg3
Nsg14
I5
sg15
Nsg16
Nsbsbsg14
I5
sg15
I8
sg16
(i__main__
Node
p1365
(dp1366
g2
Nsg3
Nsg14
I6
sg15
Nsg16
Nsbsbsbsg14
I5
sg15
I10
sg16
(i__main__
Node
p1367
(dp1368
g2
Nsg3
Nsg14
I5
sg15
Nsg16
Nsbsbsg14
I6
sg15
I9
sg16
(i__main__
Node
p1369
(dp1370
g2
I385
sg3
(i__main__
Node
p1371
(dp1372
g2
I476
sg3
(i__main__
Node
p1373
(dp1374
g2
Nsg3
Nsg14
I6
sg15
Nsg16
Nsbsg14
I5
sg15
I0
sg16
(i__main__
Node
p1375
(dp1376
g2
Nsg3
Nsg14
I5
sg15
Nsg16
Nsbsbsg14
I6
sg15
I0
sg16
(i__main__
Node
p1377
(dp1378
g2
Nsg3
Nsg14
I6
sg15
Nsg16
Nsbsbsbsbsbsg14
I6
sg15
I6
sg16
(i__main__
Node
p1379
(dp1380
g2
I189
sg3
(i__main__
Node
p1381
(dp1382
g2
I21
sg3
(i__main__
Node
p1383
(dp1384
g2
I301
sg3
(i__main__
Node
p1385
(dp1386
g2
I434
sg3
(i__main__
Node
p1387
(dp1388
g2
Nsg3
Nsg14
I4
sg15
Nsg16
Nsbsg14
I6
sg15
I0
sg16
(i__main__
Node
p1389
(dp1390
g2
I294
sg3
(i__main__
Node
p1391
(dp1392
g2
Nsg3
Nsg14
I6
sg15
Nsg16
Nsbsg14
I6
sg15
I6
sg16
(i__main__
Node
p1393
(dp1394
g2
I210
sg3
(i__main__
Node
p1395
(dp1396
g2
I294
sg3
(i__main__
Node
p1397
(dp1398
g2
I385
sg3
(i__main__
Node
p1399
(dp1400
g2
Nsg3
Nsg14
I6
sg15
Nsg16
Nsbsg14
I5
sg15
I8
sg16
(i__main__
Node
p1401
(dp1402
g2
Nsg3
Nsg14
I5
sg15
Nsg16
Nsbsbsg14
I6
sg15
I0
sg16
(i__main__
Node
p1403
(dp1404
g2
I119
sg3
(i__main__
Node
p1405
(dp1406
g2
Nsg3
Nsg14
I6
sg15
Nsg16
Nsbsg14
I6
sg15
I2
sg16
(i__main__
Node
p1407
(dp1408
g2
I259
sg3
(i__main__
Node
p1409
(dp1410
g2
Nsg3
Nsg14
I6
sg15
Nsg16
Nsbsg14
I5
sg15
I0
sg16
(i__main__
Node
p1411
(dp1412
g2
Nsg3
Nsg14
I5
sg15
Nsg16
Nsbsbsbsbsg14
I6
sg15
I3
sg16
(i__main__
Node
p1413
(dp1414
g2
Nsg3
Nsg14
I6
sg15
Nsg16
Nsbsbsbsbsg14
I6
sg15
I7
sg16
(i__main__
Node
p1415
(dp1416
g2
I315
sg3
(i__main__
Node
p1417
(dp1418
g2
I70
sg3
(i__main__
Node
p1419
(dp1420
g2
Nsg3
Nsg14
I5
sg15
Nsg16
Nsbsg14
I5
sg15
I4
sg16
(i__main__
Node
p1421
(dp1422
g2
Nsg3
Nsg14
I7
sg15
Nsg16
Nsbsbsg14
I6
sg15
I0
sg16
(i__main__
Node
p1423
(dp1424
g2
I560
sg3
(i__main__
Node
p1425
(dp1426
g2
I133
sg3
(i__main__
Node
p1427
(dp1428
g2
Nsg3
Nsg14
I7
sg15
Nsg16
Nsbsg14
I7
sg15
I2
sg16
(i__main__
Node
p1429
(dp1430
g2
Nsg3
Nsg14
I6
sg15
Nsg16
Nsbsbsg14
I6
sg15
I8
sg16
(i__main__
Node
p1431
(dp1432
g2
I133
sg3
(i__main__
Node
p1433
(dp1434
g2
I189
sg3
(i__main__
Node
p1435
(dp1436
g2
I280
sg3
(i__main__
Node
p1437
(dp1438
g2
I56
sg3
(i__main__
Node
p1439
(dp1440
g2
Nsg3
Nsg14
I7
sg15
Nsg16
Nsbsg14
I6
sg15
I3
sg16
(i__main__
Node
p1441
(dp1442
g2
Nsg3
Nsg14
I6
sg15
Nsg16
Nsbsbsg14
I6
sg15
I6
sg16
(i__main__
Node
p1443
(dp1444
g2
Nsg3
Nsg14
I6
sg15
Nsg16
Nsbsbsg14
I6
sg15
I0
sg16
(i__main__
Node
p1445
(dp1446
g2
Nsg3
Nsg14
I4
sg15
Nsg16
Nsbsbsg14
I6
sg15
I2
sg16
(i__main__
Node
p1447
(dp1448
g2
I280
sg3
(i__main__
Node
p1449
(dp1450
g2
I266
sg3
(i__main__
Node
p1451
(dp1452
g2
Nsg3
Nsg14
I4
sg15
Nsg16
Nsbsg14
I6
sg15
I0
sg16
(i__main__
Node
p1453
(dp1454
g2
Nsg3
Nsg14
I6
sg15
Nsg16
Nsbsbsg14
I6
sg15
I1
sg16
(i__main__
Node
p1455
(dp1456
g2
I203
sg3
(i__main__
Node
p1457
(dp1458
g2
Nsg3
Nsg14
I5
sg15
Nsg16
Nsbsg14
I5
sg15
I1
sg16
(i__main__
Node
p1459
(dp1460
g2
Nsg3
Nsg14
I4
sg15
Nsg16
Nsbsbsbsbsbsbsbsg14
I6
sg15
I3
sg16
(i__main__
Node
p1461
(dp1462
g2
I385
sg3
(i__main__
Node
p1463
(dp1464
g2
Nsg3
Nsg14
I6
sg15
Nsg16
Nsbsg14
I5
sg15
I0
sg16
(i__main__
Node
p1465
(dp1466
g2
Nsg3
Nsg14
I5
sg15
Nsg16
Nsbsbsbsg14
I6
sg15
I1
sg16
(i__main__
Node
p1467
(dp1468
g2
I84
sg3
(i__main__
Node
p1469
(dp1470
g2
Nsg3
Nsg14
I6
sg15
Nsg16
Nsbsg14
I6
sg15
I4
sg16
(i__main__
Node
p1471
(dp1472
g2
I413
sg3
(i__main__
Node
p1473
(dp1474
g2
Nsg3
Nsg14
I9
sg15
Nsg16
Nsbsg14
I8
sg15
I0
sg16
(i__main__
Node
p1475
(dp1476
g2
Nsg3
Nsg14
I8
sg15
Nsg16
Nsbsbsbsbsbsg14
I6
sg15
I5
sg16
(i__main__
Node
p1477
(dp1478
g2
I259
sg3
(i__main__
Node
p1479
(dp1480
g2
I399
sg3
(i__main__
Node
p1481
(dp1482
g2
Nsg3
Nsg14
I6
sg15
Nsg16
Nsbsg14
I5
sg15
I7
sg16
(i__main__
Node
p1483
(dp1484
g2
I42
sg3
(i__main__
Node
p1485
(dp1486
g2
I175
sg3
(i__main__
Node
p1487
(dp1488
g2
I126
sg3
(i__main__
Node
p1489
(dp1490
g2
Nsg3
Nsg14
I6
sg15
Nsg16
Nsbsg14
I4
sg15
I4
sg16
(i__main__
Node
p1491
(dp1492
g2
I98
sg3
(i__main__
Node
p1493
(dp1494
g2
I231
sg3
(i__main__
Node
p1495
(dp1496
g2
Nsg3
Nsg14
I4
sg15
Nsg16
Nsbsg14
I4
sg15
I1
sg16
(i__main__
Node
p1497
(dp1498
g2
I420
sg3
(i__main__
Node
p1499
(dp1500
g2
Nsg3
Nsg14
I4
sg15
Nsg16
Nsbsg14
I5
sg15
I0
sg16
(i__main__
Node
p1501
(dp1502
g2
Nsg3
Nsg14
I5
sg15
Nsg16
Nsbsbsbsg14
I4
sg15
I4
sg16
(i__main__
Node
p1503
(dp1504
g2
Nsg3
Nsg14
I5
sg15
Nsg16
Nsbsbsbsg14
I5
sg15
I2
sg16
(i__main__
Node
p1505
(dp1506
g2
I441
sg3
(i__main__
Node
p1507
(dp1508
g2
Nsg3
Nsg14
I5
sg15
Nsg16
Nsbsg14
I6
sg15
I8
sg16
(i__main__
Node
p1509
(dp1510
g2
I392
sg3
(i__main__
Node
p1511
(dp1512
g2
Nsg3
Nsg14
I5
sg15
Nsg16
Nsbsg14
I6
sg15
I3
sg16
(i__main__
Node
p1513
(dp1514
g2
Nsg3
Nsg14
I6
sg15
Nsg16
Nsbsbsbsbsg14
I5
sg15
I5
sg16
(i__main__
Node
p1515
(dp1516
g2
I147
sg3
(i__main__
Node
p1517
(dp1518
g2
I371
sg3
(i__main__
Node
p1519
(dp1520
g2
I217
sg3
(i__main__
Node
p1521
(dp1522
g2
I217
sg3
(i__main__
Node
p1523
(dp1524
g2
Nsg3
Nsg14
I5
sg15
Nsg16
Nsbsg14
I5
sg15
I1
sg16
(i__main__
Node
p1525
(dp1526
g2
I469
sg3
(i__main__
Node
p1527
(dp1528
g2
Nsg3
Nsg14
I5
sg15
Nsg16
Nsbsg14
I4
sg15
I0
sg16
(i__main__
Node
p1529
(dp1530
g2
Nsg3
Nsg14
I4
sg15
Nsg16
Nsbsbsbsg14
I4
sg15
I0
sg16
(i__main__
Node
p1531
(dp1532
g2
Nsg3
Nsg14
I4
sg15
Nsg16
Nsbsbsg14
I5
sg15
I10
sg16
(i__main__
Node
p1533
(dp1534
g2
Nsg3
Nsg14
I5
sg15
Nsg16
Nsbsbsg14
I5
sg15
I9
sg16
(i__main__
Node
p1535
(dp1536
g2
Nsg3
Nsg14
I4
sg15
Nsg16
Nsbsbsbsbsg14
I5
sg15
I7
sg16
(i__main__
Node
p1537
(dp1538
g2
I301
sg3
(i__main__
Node
p1539
(dp1540
g2
I28
sg3
(i__main__
Node
p1541
(dp1542
g2
I175
sg3
(i__main__
Node
p1543
(dp1544
g2
Nsg3
Nsg14
I6
sg15
Nsg16
Nsbsg14
I6
sg15
I2
sg16
(i__main__
Node
p1545
(dp1546
g2
I217
sg3
(i__main__
Node
p1547
(dp1548
g2
Nsg3
Nsg14
I7
sg15
Nsg16
Nsbsg14
I7
sg15
I0
sg16
(i__main__
Node
p1549
(dp1550
g2
Nsg3
Nsg14
I6
sg15
Nsg16
Nsbsbsbsg14
I6
sg15
I3
sg16
(i__main__
Node
p1551
(dp1552
g2
I217
sg3
(i__main__
Node
p1553
(dp1554
g2
Nsg3
Nsg14
I5
sg15
Nsg16
Nsbsg14
I7
sg15
I1
sg16
(i__main__
Node
p1555
(dp1556
g2
Nsg3
Nsg14
I7
sg15
Nsg16
Nsbsbsbsg14
I5
sg15
I9
sg16
(i__main__
Node
p1557
(dp1558
g2
I161
sg3
(i__main__
Node
p1559
(dp1560
g2
I350
sg3
(i__main__
Node
p1561
(dp1562
g2
I42
sg3
(i__main__
Node
p1563
(dp1564
g2
Nsg3
Nsg14
I5
sg15
Nsg16
Nsbsg14
I5
sg15
I5
sg16
(i__main__
Node
p1565
(dp1566
g2
I70
sg3
(i__main__
Node
p1567
(dp1568
g2
I224
sg3
(i__main__
Node
p1569
(dp1570
g2
I217
sg3
(i__main__
Node
p1571
(dp1572
g2
Nsg3
Nsg14
I5
sg15
Nsg16
Nsbsg14
I5
sg15
I0
sg16
(i__main__
Node
p1573
(dp1574
g2
Nsg3
Nsg14
I4
sg15
Nsg16
Nsbsbsg14
I6
sg15
I7
sg16
(i__main__
Node
p1575
(dp1576
g2
I203
sg3
(i__main__
Node
p1577
(dp1578
g2
I476
sg3
(i__main__
Node
p1579
(dp1580
g2
Nsg3
Nsg14
I6
sg15
Nsg16
Nsbsg14
I4
sg15
I0
sg16
(i__main__
Node
p1581
(dp1582
g2
Nsg3
Nsg14
I4
sg15
Nsg16
Nsbsbsg14
I6
sg15
I2
sg16
(i__main__
Node
p1583
(dp1584
g2
Nsg3
Nsg14
I6
sg15
Nsg16
Nsbsbsbsg14
I5
sg15
I4
sg16
(i__main__
Node
p1585
(dp1586
g2
I196
sg3
(i__main__
Node
p1587
(dp1588
g2
Nsg3
Nsg14
I5
sg15
Nsg16
Nsbsg14
I5
sg15
I0
sg16
(i__main__
Node
p1589
(dp1590
g2
Nsg3
Nsg14
I6
sg15
Nsg16
Nsbsbsbsbsg14
I5
sg15
I10
sg16
(i__main__
Node
p1591
(dp1592
g2
Nsg3
Nsg14
I4
sg15
Nsg16
Nsbsbsg14
I5
sg15
I0
sg16
(i__main__
Node
p1593
(dp1594
g2
Nsg3
Nsg14
I6
sg15
Nsg16
Nsbsbsbsbsbsg14
I5
sg15
I10
sg16
(i__main__
Node
p1595
(dp1596
g2
I21
sg3
(i__main__
Node
p1597
(dp1598
g2
I462
sg3
(i__main__
Node
p1599
(dp1600
g2
I84
sg3
(i__main__
Node
p1601
(dp1602
g2
I112
sg3
(i__main__
Node
p1603
(dp1604
g2
I238
sg3
(i__main__
Node
p1605
(dp1606
g2
Nsg3
Nsg14
I5
sg15
Nsg16
Nsbsg14
I5
sg15
I0
sg16
(i__main__
Node
p1607
(dp1608
g2
I511
sg3
(i__main__
Node
p1609
(dp1610
g2
Nsg3
Nsg14
I5
sg15
Nsg16
Nsbsg14
I5
sg15
I1
sg16
(i__main__
Node
p1611
(dp1612
g2
Nsg3
Nsg14
I4
sg15
Nsg16
Nsbsbsbsg14
I5
sg15
I5
sg16
(i__main__
Node
p1613
(dp1614
g2
I322
sg3
(i__main__
Node
p1615
(dp1616
g2
Nsg3
Nsg14
I3
sg15
Nsg16
Nsbsg14
I5
sg15
I0
sg16
(i__main__
Node
p1617
(dp1618
g2
I364
sg3
(i__main__
Node
p1619
(dp1620
g2
I560
sg3
(i__main__
Node
p1621
(dp1622
g2
Nsg3
Nsg14
I6
sg15
Nsg16
Nsbsg14
I5
sg15
I8
sg16
(i__main__
Node
p1623
(dp1624
g2
Nsg3
Nsg14
I5
sg15
Nsg16
Nsbsbsg14
I5
sg15
I8
sg16
(i__main__
Node
p1625
(dp1626
g2
Nsg3
Nsg14
I6
sg15
Nsg16
Nsbsbsbsbsg14
I5
sg15
I5
sg16
(i__main__
Node
p1627
(dp1628
g2
I91
sg3
(i__main__
Node
p1629
(dp1630
g2
Nsg3
Nsg14
I5
sg15
Nsg16
Nsbsg14
I5
sg15
I2
sg16
(i__main__
Node
p1631
(dp1632
g2
I301
sg3
(i__main__
Node
p1633
(dp1634
g2
Nsg3
Nsg14
I5
sg15
Nsg16
Nsbsg14
I4
sg15
I9
sg16
(i__main__
Node
p1635
(dp1636
g2
I147
sg3
(i__main__
Node
p1637
(dp1638
g2
Nsg3
Nsg14
I4
sg15
Nsg16
Nsbsg14
I4
sg15
I0
sg16
(i__main__
Node
p1639
(dp1640
g2
Nsg3
Nsg14
I5
sg15
Nsg16
Nsbsbsbsbsbsg14
I5
sg15
I1
sg16
(i__main__
Node
p1641
(dp1642
g2
I84
sg3
(i__main__
Node
p1643
(dp1644
g2
I203
sg3
(i__main__
Node
p1645
(dp1646
g2
I343
sg3
(i__main__
Node
p1647
(dp1648
g2
I126
sg3
(i__main__
Node
p1649
(dp1650
g2
I154
sg3
(i__main__
Node
p1651
(dp1652
g2
I245
sg3
(i__main__
Node
p1653
(dp1654
g2
I203
sg3
(i__main__
Node
p1655
(dp1656
g2
Nsg3
Nsg14
I5
sg15
Nsg16
Nsbsg14
I5
sg15
I1
sg16
(i__main__
Node
p1657
(dp1658
g2
Nsg3
Nsg14
I4
sg15
Nsg16
Nsbsbsg14
I5
sg15
I0
sg16
(i__main__
Node
p1659
(dp1660
g2
I252
sg3
(i__main__
Node
p1661
(dp1662
g2
Nsg3
Nsg14
I5
sg15
Nsg16
Nsbsg14
I5
sg15
I10
sg16
(i__main__
Node
p1663
(dp1664
g2
I595
sg3
(i__main__
Node
p1665
(dp1666
g2
Nsg3
Nsg14
I5
sg15
Nsg16
Nsbsg14
I5
sg15
I4
sg16
(i__main__
Node
p1667
(dp1668
g2
I203
sg3
(i__main__
Node
p1669
(dp1670
g2
I420
sg3
(i__main__
Node
p1671
(dp1672
g2
I280
sg3
(i__main__
Node
p1673
(dp1674
g2
I154
sg3
(i__main__
Node
p1675
(dp1676
g2
Nsg3
Nsg14
I5
sg15
Nsg16
Nsbsg14
I5
sg15
I3
sg16
(i__main__
Node
p1677
(dp1678
g2
Nsg3
Nsg14
I6
sg15
Nsg16
Nsbsbsg14
I6
sg15
I1
sg16
(i__main__
Node
p1679
(dp1680
g2
Nsg3
Nsg14
I6
sg15
Nsg16
Nsbsbsg14
I5
sg15
I8
sg16
(i__main__
Node
p1681
(dp1682
g2
Nsg3
Nsg14
I5
sg15
Nsg16
Nsbsbsg14
I6
sg15
I1
sg16
(i__main__
Node
p1683
(dp1684
g2
Nsg3
Nsg14
I6
sg15
Nsg16
Nsbsbsbsbsbsg14
I5
sg15
I4
sg16
(i__main__
Node
p1685
(dp1686
g2
I140
sg3
(i__main__
Node
p1687
(dp1688
g2
I245
sg3
(i__main__
Node
p1689
(dp1690
g2
I469
sg3
(i__main__
Node
p1691
(dp1692
g2
I182
sg3
(i__main__
Node
p1693
(dp1694
g2
Nsg3
Nsg14
I6
sg15
Nsg16
Nsbsg14
I6
sg15
I3
sg16
(i__main__
Node
p1695
(dp1696
g2
I210
sg3
(i__main__
Node
p1697
(dp1698
g2
Nsg3
Nsg14
I5
sg15
Nsg16
Nsbsg14
I5
sg15
I1
sg16
(i__main__
Node
p1699
(dp1700
g2
Nsg3
Nsg14
I6
sg15
Nsg16
Nsbsbsbsg14
I5
sg15
I8
sg16
(i__main__
Node
p1701
(dp1702
g2
I350
sg3
(i__main__
Node
p1703
(dp1704
g2
Nsg3
Nsg14
I6
sg15
Nsg16
Nsbsg14
I5
sg15
I1
sg16
(i__main__
Node
p1705
(dp1706
g2
I434
sg3
(i__main__
Node
p1707
(dp1708
g2
I217
sg3
(i__main__
Node
p1709
(dp1710
g2
I413
sg3
(i__main__
Node
p1711
(dp1712
g2
I217
sg3
(i__main__
Node
p1713
(dp1714
g2
Nsg3
Nsg14
I6
sg15
Nsg16
Nsbsg14
I5
sg15
I1
sg16
(i__main__
Node
p1715
(dp1716
g2
Nsg3
Nsg14
I5
sg15
Nsg16
Nsbsbsg14
I6
sg15
I8
sg16
(i__main__
Node
p1717
(dp1718
g2
Nsg3
Nsg14
I6
sg15
Nsg16
Nsbsbsg14
I5
sg15
I10
sg16
(i__main__
Node
p1719
(dp1720
g2
I84
sg3
(i__main__
Node
p1721
(dp1722
g2
Nsg3
Nsg14
I5
sg15
Nsg16
Nsbsg14
I5
sg15
I10
sg16
(i__main__
Node
p1723
(dp1724
g2
Nsg3
Nsg14
I6
sg15
Nsg16
Nsbsbsbsg14
I5
sg15
I6
sg16
(i__main__
Node
p1725
(dp1726
g2
Nsg3
Nsg14
I5
sg15
Nsg16
Nsbsbsbsbsg14
I5
sg15
I2
sg16
(i__main__
Node
p1727
(dp1728
g2
I210
sg3
(i__main__
Node
p1729
(dp1730
g2
I210
sg3
(i__main__
Node
p1731
(dp1732
g2
I91
sg3
(i__main__
Node
p1733
(dp1734
g2
Nsg3
Nsg14
I6
sg15
Nsg16
Nsbsg14
I6
sg15
I4
sg16
(i__main__
Node
p1735
(dp1736
g2
Nsg3
Nsg14
I5
sg15
Nsg16
Nsbsbsg14
I5
sg15
I5
sg16
(i__main__
Node
p1737
(dp1738
g2
I322
sg3
(i__main__
Node
p1739
(dp1740
g2
I385
sg3
(i__main__
Node
p1741
(dp1742
g2
I308
sg3
(i__main__
Node
p1743
(dp1744
g2
Nsg3
Nsg14
I5
sg15
Nsg16
Nsbsg14
I6
sg15
I1
sg16
(i__main__
Node
p1745
(dp1746
g2
I217
sg3
(i__main__
Node
p1747
(dp1748
g2
Nsg3
Nsg14
I6
sg15
Nsg16
Nsbsg14
I6
sg15
I3
sg16
(i__main__
Node
p1749
(dp1750
g2
I224
sg3
(i__main__
Node
p1751
(dp1752
g2
Nsg3
Nsg14
I5
sg15
Nsg16
Nsbsg14
I5
sg15
I0
sg16
(i__main__
Node
p1753
(dp1754
g2
Nsg3
Nsg14
I6
sg15
Nsg16
Nsbsbsbsbsg14
I6
sg15
I6
sg16
(i__main__
Node
p1755
(dp1756
g2
I357
sg3
(i__main__
Node
p1757
(dp1758
g2
I217
sg3
(i__main__
Node
p1759
(dp1760
g2
Nsg3
Nsg14
I6
sg15
Nsg16
Nsbsg14
I6
sg15
I0
sg16
(i__main__
Node
p1761
(dp1762
g2
Nsg3
Nsg14
I5
sg15
Nsg16
Nsbsbsg14
I5
sg15
I8
sg16
(i__main__
Node
p1763
(dp1764
g2
Nsg3
Nsg14
I5
sg15
Nsg16
Nsbsbsbsg14
I5
sg15
I9
sg16
(i__main__
Node
p1765
(dp1766
g2
I217
sg3
(i__main__
Node
p1767
(dp1768
g2
I399
sg3
(i__main__
Node
p1769
(dp1770
g2
I287
sg3
(i__main__
Node
p1771
(dp1772
g2
Nsg3
Nsg14
I5
sg15
Nsg16
Nsbsg14
I5
sg15
I0
sg16
(i__main__
Node
p1773
(dp1774
g2
Nsg3
Nsg14
I6
sg15
Nsg16
Nsbsbsg14
I5
sg15
I1
sg16
(i__main__
Node
p1775
(dp1776
g2
Nsg3
Nsg14
I5
sg15
Nsg16
Nsbsbsg14
I5
sg15
I1
sg16
(i__main__
Node
p1777
(dp1778
g2
I469
sg3
(i__main__
Node
p1779
(dp1780
g2
Nsg3
Nsg14
I5
sg15
Nsg16
Nsbsg14
I5
sg15
I8
sg16
(i__main__
Node
p1781
(dp1782
g2
I238
sg3
(i__main__
Node
p1783
(dp1784
g2
I455
sg3
(i__main__
Node
p1785
(dp1786
g2
Nsg3
Nsg14
I6
sg15
Nsg16
Nsbsg14
I5
sg15
I8
sg16
(i__main__
Node
p1787
(dp1788
g2
Nsg3
Nsg14
I5
sg15
Nsg16
Nsbsbsg14
I6
sg15
I0
sg16
(i__main__
Node
p1789
(dp1790
g2
Nsg3
Nsg14
I6
sg15
Nsg16
Nsbsbsbsbsbsbsg14
I6
sg15
I3
sg16
(i__main__
Node
p1791
(dp1792
g2
I133
sg3
(i__main__
Node
p1793
(dp1794
g2
Nsg3
Nsg14
I6
sg15
Nsg16
Nsbsg14
I6
sg15
I5
sg16
(i__main__
Node
p1795
(dp1796
g2
Nsg3
Nsg14
I5
sg15
Nsg16
Nsbsbsbsbsg14
I5
sg15
I2
sg16
(i__main__
Node
p1797
(dp1798
g2
I21
sg3
(i__main__
Node
p1799
(dp1800
g2
I119
sg3
(i__main__
Node
p1801
(dp1802
g2
Nsg3
Nsg14
I5
sg15
Nsg16
Nsbsg14
I5
sg15
I2
sg16
(i__main__
Node
p1803
(dp1804
g2
I217
sg3
(i__main__
Node
p1805
(dp1806
g2
I28
sg3
(i__main__
Node
p1807
(dp1808
g2
I273
sg3
(i__main__
Node
p1809
(dp1810
g2
I294
sg3
(i__main__
Node
p1811
(dp1812
g2
Nsg3
Nsg14
I6
sg15
Nsg16
Nsbsg14
I5
sg15
I0
sg16
(i__main__
Node
p1813
(dp1814
g2
Nsg3
Nsg14
I5
sg15
Nsg16
Nsbsbsg14
I6
sg15
I0
sg16
(i__main__
Node
p1815
(dp1816
g2
Nsg3
Nsg14
I6
sg15
Nsg16
Nsbsbsg14
I6
sg15
I3
sg16
(i__main__
Node
p1817
(dp1818
g2
Nsg3
Nsg14
I5
sg15
Nsg16
Nsbsbsg14
I5
sg15
I1
sg16
(i__main__
Node
p1819
(dp1820
g2
I252
sg3
(i__main__
Node
p1821
(dp1822
g2
Nsg3
Nsg14
I6
sg15
Nsg16
Nsbsg14
I5
sg15
I3
sg16
(i__main__
Node
p1823
(dp1824
g2
Nsg3
Nsg14
I5
sg15
Nsg16
Nsbsbsbsbsg14
I5
sg15
I3
sg16
(i__main__
Node
p1825
(dp1826
g2
Nsg3
Nsg14
I6
sg15
Nsg16
Nsbsbsbsbsg14
I5
sg15
I5
sg16
(i__main__
Node
p1827
(dp1828
g2
I469
sg3
(i__main__
Node
p1829
(dp1830
g2
I119
sg3
(i__main__
Node
p1831
(dp1832
g2
I238
sg3
(i__main__
Node
p1833
(dp1834
g2
I266
sg3
(i__main__
Node
p1835
(dp1836
g2
Nsg3
Nsg14
I4
sg15
Nsg16
Nsbsg14
I6
sg15
I0
sg16
(i__main__
Node
p1837
(dp1838
g2
Nsg3
Nsg14
I6
sg15
Nsg16
Nsbsbsg14
I5
sg15
I2
sg16
(i__main__
Node
p1839
(dp1840
g2
I399
sg3
(i__main__
Node
p1841
(dp1842
g2
I49
sg3
(i__main__
Node
p1843
(dp1844
g2
I189
sg3
(i__main__
Node
p1845
(dp1846
g2
Nsg3
Nsg14
I4
sg15
Nsg16
Nsbsg14
I5
sg15
I1
sg16
(i__main__
Node
p1847
(dp1848
g2
Nsg3
Nsg14
I5
sg15
Nsg16
Nsbsbsg14
I4
sg15
I3
sg16
(i__main__
Node
p1849
(dp1850
g2
Nsg3
Nsg14
I4
sg15
Nsg16
Nsbsbsg14
I5
sg15
I6
sg16
(i__main__
Node
p1851
(dp1852
g2
I42
sg3
(i__main__
Node
p1853
(dp1854
g2
Nsg3
Nsg14
I5
sg15
Nsg16
Nsbsg14
I5
sg15
I5
sg16
(i__main__
Node
p1855
(dp1856
g2
Nsg3
Nsg14
I4
sg15
Nsg16
Nsbsbsbsbsg14
I5
sg15
I4
sg16
(i__main__
Node
p1857
(dp1858
g2
I259
sg3
(i__main__
Node
p1859
(dp1860
g2
I224
sg3
(i__main__
Node
p1861
(dp1862
g2
Nsg3
Nsg14
I7
sg15
Nsg16
Nsbsg14
I4
sg15
I0
sg16
(i__main__
Node
p1863
(dp1864
g2
Nsg3
Nsg14
I4
sg15
Nsg16
Nsbsbsg14
I6
sg15
I2
sg16
(i__main__
Node
p1865
(dp1866
g2
I77
sg3
(i__main__
Node
p1867
(dp1868
g2
I217
sg3
(i__main__
Node
p1869
(dp1870
g2
I238
sg3
(i__main__
Node
p1871
(dp1872
g2
Nsg3
Nsg14
I6
sg15
Nsg16
Nsbsg14
I6
sg15
I0
sg16
(i__main__
Node
p1873
(dp1874
g2
I133
sg3
(i__main__
Node
p1875
(dp1876
g2
Nsg3
Nsg14
I7
sg15
Nsg16
Nsbsg14
I7
sg15
I0
sg16
(i__main__
Node
p1877
(dp1878
g2
Nsg3
Nsg14
I6
sg15
Nsg16
Nsbsbsbsg14
I6
sg15
I10
sg16
(i__main__
Node
p1879
(dp1880
g2
I154
sg3
(i__main__
Node
p1881
(dp1882
g2
I371
sg3
(i__main__
Node
p1883
(dp1884
g2
Nsg3
Nsg14
I5
sg15
Nsg16
Nsbsg14
I6
sg15
I0
sg16
(i__main__
Node
p1885
(dp1886
g2
Nsg3
Nsg14
I6
sg15
Nsg16
Nsbsbsg14
I5
sg15
I2
sg16
(i__main__
Node
p1887
(dp1888
g2
Nsg3
Nsg14
I5
sg15
Nsg16
Nsbsbsbsg14
I6
sg15
I3
sg16
(i__main__
Node
p1889
(dp1890
g2
I98
sg3
(i__main__
Node
p1891
(dp1892
g2
I21
sg3
(i__main__
Node
p1893
(dp1894
g2
I252
sg3
(i__main__
Node
p1895
(dp1896
g2
Nsg3
Nsg14
I5
sg15
Nsg16
Nsbsg14
I5
sg15
I10
sg16
(i__main__
Node
p1897
(dp1898
g2
Nsg3
Nsg14
I6
sg15
Nsg16
Nsbsbsg14
I6
sg15
I3
sg16
(i__main__
Node
p1899
(dp1900
g2
Nsg3
Nsg14
I6
sg15
Nsg16
Nsbsbsg14
I5
sg15
I4
sg16
(i__main__
Node
p1901
(dp1902
g2
Nsg3
Nsg14
I5
sg15
Nsg16
Nsbsbsbsbsbsg14
I5
sg15
I8
sg16
(i__main__
Node
p1903
(dp1904
g2
I518
sg3
(i__main__
Node
p1905
(dp1906
g2
I392
sg3
(i__main__
Node
p1907
(dp1908
g2
Nsg3
Nsg14
I5
sg15
Nsg16
Nsbsg14
I6
sg15
I0
sg16
(i__main__
Node
p1909
(dp1910
g2
Nsg3
Nsg14
I6
sg15
Nsg16
Nsbsbsg14
I5
sg15
I7
sg16
(i__main__
Node
p1911
(dp1912
g2
I301
sg3
(i__main__
Node
p1913
(dp1914
g2
I308
sg3
(i__main__
Node
p1915
(dp1916
g2
I217
sg3
(i__main__
Node
p1917
(dp1918
g2
Nsg3
Nsg14
I6
sg15
Nsg16
Nsbsg14
I6
sg15
I1
sg16
(i__main__
Node
p1919
(dp1920
g2
I259
sg3
(i__main__
Node
p1921
(dp1922
g2
Nsg3
Nsg14
I5
sg15
Nsg16
Nsbsg14
I5
sg15
I0
sg16
(i__main__
Node
p1923
(dp1924
g2
Nsg3
Nsg14
I6
sg15
Nsg16
Nsbsbsbsg14
I6
sg15
I2
sg16
(i__main__
Node
p1925
(dp1926
g2
Nsg3
Nsg14
I4
sg15
Nsg16
Nsbsbsg14
I5
sg15
I2
sg16
(i__main__
Node
p1927
(dp1928
g2
I140
sg3
(i__main__
Node
p1929
(dp1930
g2
I483
sg3
(i__main__
Node
p1931
(dp1932
g2
Nsg3
Nsg14
I6
sg15
Nsg16
Nsbsg14
I5
sg15
I9
sg16
(i__main__
Node
p1933
(dp1934
g2
I441
sg3
(i__main__
Node
p1935
(dp1936
g2
Nsg3
Nsg14
I5
sg15
Nsg16
Nsbsg14
I5
sg15
I3
sg16
(i__main__
Node
p1937
(dp1938
g2
I385
sg3
(i__main__
Node
p1939
(dp1940
g2
Nsg3
Nsg14
I6
sg15
Nsg16
Nsbsg14
I5
sg15
I3
sg16
(i__main__
Node
p1941
(dp1942
g2
I322
sg3
(i__main__
Node
p1943
(dp1944
g2
I98
sg3
(i__main__
Node
p1945
(dp1946
g2
Nsg3
Nsg14
I5
sg15
Nsg16
Nsbsg14
I5
sg15
I4
sg16
(i__main__
Node
p1947
(dp1948
g2
I413
sg3
(i__main__
Node
p1949
(dp1950
g2
Nsg3
Nsg14
I6
sg15
Nsg16
Nsbsg14
I5
sg15
I8
sg16
(i__main__
Node
p1951
(dp1952
g2
Nsg3
Nsg14
I5
sg15
Nsg16
Nsbsbsbsg14
I5
sg15
I0
sg16
(i__main__
Node
p1953
(dp1954
g2
I231
sg3
(i__main__
Node
p1955
(dp1956
g2
I385
sg3
(i__main__
Node
p1957
(dp1958
g2
Nsg3
Nsg14
I6
sg15
Nsg16
Nsbsg14
I5
sg15
I1
sg16
(i__main__
Node
p1959
(dp1960
g2
Nsg3
Nsg14
I5
sg15
Nsg16
Nsbsbsg14
I5
sg15
I3
sg16
(i__main__
Node
p1961
(dp1962
g2
I294
sg3
(i__main__
Node
p1963
(dp1964
g2
Nsg3
Nsg14
I6
sg15
Nsg16
Nsbsg14
I6
sg15
I0
sg16
(i__main__
Node
p1965
(dp1966
g2
Nsg3
Nsg14
I5
sg15
Nsg16
Nsbsbsbsbsbsbsbsg14
I5
sg15
I2
sg16
(i__main__
Node
p1967
(dp1968
g2
I245
sg3
(i__main__
Node
p1969
(dp1970
g2
I378
sg3
(i__main__
Node
p1971
(dp1972
g2
I406
sg3
(i__main__
Node
p1973
(dp1974
g2
Nsg3
Nsg14
I5
sg15
Nsg16
Nsbsg14
I5
sg15
I8
sg16
(i__main__
Node
p1975
(dp1976
g2
I28
sg3
(i__main__
Node
p1977
(dp1978
g2
Nsg3
Nsg14
I4
sg15
Nsg16
Nsbsg14
I4
sg15
I5
sg16
(i__main__
Node
p1979
(dp1980
g2
Nsg3
Nsg14
I5
sg15
Nsg16
Nsbsbsbsg14
I5
sg15
I8
sg16
(i__main__
Node
p1981
(dp1982
g2
Nsg3
Nsg14
I5
sg15
Nsg16
Nsbsbsg14
I5
sg15
I0
sg16
(i__main__
Node
p1983
(dp1984
g2
I259
sg3
(i__main__
Node
p1985
(dp1986
g2
I189
sg3
(i__main__
Node
p1987
(dp1988
g2
I224
sg3
(i__main__
Node
p1989
(dp1990
g2
Nsg3
Nsg14
I5
sg15
Nsg16
Nsbsg14
I6
sg15
I0
sg16
(i__main__
Node
p1991
(dp1992
g2
Nsg3
Nsg14
I6
sg15
Nsg16
Nsbsbsg14
I5
sg15
I3
sg16
(i__main__
Node
p1993
(dp1994
g2
Nsg3
Nsg14
I5
sg15
Nsg16
Nsbsbsg14
I5
sg15
I9
sg16
(i__main__
Node
p1995
(dp1996
g2
I259
sg3
(i__main__
Node
p1997
(dp1998
g2
Nsg3
Nsg14
I6
sg15
Nsg16
Nsbsg14
I6
sg15
I1
sg16
(i__main__
Node
p1999
(dp2000
g2
Nsg3
Nsg14
I4
sg15
Nsg16
Nsbsbsbsbsbsbsbsbsbsg14
I5
sg15
I8
sg16
(i__main__
Node
p2001
(dp2002
g2
I287
sg3
(i__main__
Node
p2003
(dp2004
g2
I301
sg3
(i__main__
Node
p2005
(dp2006
g2
I231
sg3
(i__main__
Node
p2007
(dp2008
g2
I105
sg3
(i__main__
Node
p2009
(dp2010
g2
I63
sg3
(i__main__
Node
p2011
(dp2012
g2
Nsg3
Nsg14
I5
sg15
Nsg16
Nsbsg14
I5
sg15
I5
sg16
(i__main__
Node
p2013
(dp2014
g2
I308
sg3
(i__main__
Node
p2015
(dp2016
g2
Nsg3
Nsg14
I6
sg15
Nsg16
Nsbsg14
I5
sg15
I3
sg16
(i__main__
Node
p2017
(dp2018
g2
I301
sg3
(i__main__
Node
p2019
(dp2020
g2
I182
sg3
(i__main__
Node
p2021
(dp2022
g2
Nsg3
Nsg14
I5
sg15
Nsg16
Nsbsg14
I4
sg15
I3
sg16
(i__main__
Node
p2023
(dp2024
g2
Nsg3
Nsg14
I4
sg15
Nsg16
Nsbsbsg14
I5
sg15
I9
sg16
(i__main__
Node
p2025
(dp2026
g2
Nsg3
Nsg14
I5
sg15
Nsg16
Nsbsbsbsbsg14
I5
sg15
I10
sg16
(i__main__
Node
p2027
(dp2028
g2
Nsg3
Nsg14
I4
sg15
Nsg16
Nsbsbsg14
I5
sg15
I8
sg16
(i__main__
Node
p2029
(dp2030
g2
Nsg3
Nsg14
I6
sg15
Nsg16
Nsbsbsg14
I5
sg15
I1
sg16
(i__main__
Node
p2031
(dp2032
g2
I217
sg3
(i__main__
Node
p2033
(dp2034
g2
Nsg3
Nsg14
I6
sg15
Nsg16
Nsbsg14
I6
sg15
I0
sg16
(i__main__
Node
p2035
(dp2036
g2
Nsg3
Nsg14
I4
sg15
Nsg16
Nsbsbsbsg14
I5
sg15
I1
sg16
(i__main__
Node
p2037
(dp2038
g2
I238
sg3
(i__main__
Node
p2039
(dp2040
g2
I315
sg3
(i__main__
Node
p2041
(dp2042
g2
I469
sg3
(i__main__
Node
p2043
(dp2044
g2
Nsg3
Nsg14
I6
sg15
Nsg16
Nsbsg14
I5
sg15
I6
sg16
(i__main__
Node
p2045
(dp2046
g2
Nsg3
Nsg14
I5
sg15
Nsg16
Nsbsbsg14
I5
sg15
I0
sg16
(i__main__
Node
p2047
(dp2048
g2
I329
sg3
(i__main__
Node
p2049
(dp2050
g2
Nsg3
Nsg14
I7
sg15
Nsg16
Nsbsg14
I5
sg15
I3
sg16
(i__main__
Node
p2051
(dp2052
g2
Nsg3
Nsg14
I5
sg15
Nsg16
Nsbsbsbsg14
I5
sg15
I10
sg16
(i__main__
Node
p2053
(dp2054
g2
I308
sg3
(i__main__
Node
p2055
(dp2056
g2
I252
sg3
(i__main__
Node
p2057
(dp2058
g2
I504
sg3
(i__main__
Node
p2059
(dp2060
g2
I161
sg3
(i__main__
Node
p2061
(dp2062
g2
Nsg3
Nsg14
I6
sg15
Nsg16
Nsbsg14
I6
sg15
I5
sg16
(i__main__
Node
p2063
(dp2064
g2
I217
sg3
(i__main__
Node
p2065
(dp2066
g2
Nsg3
Nsg14
I5
sg15
Nsg16
Nsbsg14
I5
sg15
I2
sg16
(i__main__
Node
p2067
(dp2068
g2
I434
sg3
(i__main__
Node
p2069
(dp2070
g2
Nsg3
Nsg14
I5
sg15
Nsg16
Nsbsg14
I6
sg15
I0
sg16
(i__main__
Node
p2071
(dp2072
g2
Nsg3
Nsg14
I6
sg15
Nsg16
Nsbsbsbsbsg14
I5
sg15
I7
sg16
(i__main__
Node
p2073
(dp2074
g2
I203
sg3
(i__main__
Node
p2075
(dp2076
g2
I126
sg3
(i__main__
Node
p2077
(dp2078
g2
Nsg3
Nsg14
I5
sg15
Nsg16
Nsbsg14
I5
sg15
I5
sg16
(i__main__
Node
p2079
(dp2080
g2
I294
sg3
(i__main__
Node
p2081
(dp2082
g2
I350
sg3
(i__main__
Node
p2083
(dp2084
g2
Nsg3
Nsg14
I5
sg15
Nsg16
Nsbsg14
I6
sg15
I6
sg16
(i__main__
Node
p2085
(dp2086
g2
Nsg3
Nsg14
I6
sg15
Nsg16
Nsbsbsg14
I5
sg15
I2
sg16
(i__main__
Node
p2087
(dp2088
g2
Nsg3
Nsg14
I5
sg15
Nsg16
Nsbsbsbsg14
I5
sg15
I1
sg16
(i__main__
Node
p2089
(dp2090
g2
I336
sg3
(i__main__
Node
p2091
(dp2092
g2
Nsg3
Nsg14
I5
sg15
Nsg16
Nsbsg14
I6
sg15
I0
sg16
(i__main__
Node
p2093
(dp2094
g2
Nsg3
Nsg14
I6
sg15
Nsg16
Nsbsbsbsbsg14
I5
sg15
I9
sg16
(i__main__
Node
p2095
(dp2096
g2
I364
sg3
(i__main__
Node
p2097
(dp2098
g2
I371
sg3
(i__main__
Node
p2099
(dp2100
g2
Nsg3
Nsg14
I5
sg15
Nsg16
Nsbsg14
I5
sg15
I0
sg16
(i__main__
Node
p2101
(dp2102
g2
Nsg3
Nsg14
I4
sg15
Nsg16
Nsbsbsg14
I5
sg15
I0
sg16
(i__main__
Node
p2103
(dp2104
g2
Nsg3
Nsg14
I5
sg15
Nsg16
Nsbsbsbsg14
I5
sg15
I7
sg16
(i__main__
Node
p2105
(dp2106
g2
I84
sg3
(i__main__
Node
p2107
(dp2108
g2
Nsg3
Nsg14
I6
sg15
Nsg16
Nsbsg14
I6
sg15
I3
sg16
(i__main__
Node
p2109
(dp2110
g2
I210
sg3
(i__main__
Node
p2111
(dp2112
g2
Nsg3
Nsg14
I5
sg15
Nsg16
Nsbsg14
I5
sg15
I1
sg16
(i__main__
Node
p2113
(dp2114
g2
I238
sg3
(i__main__
Node
p2115
(dp2116
g2
Nsg3
Nsg14
I6
sg15
Nsg16
Nsbsg14
I6
sg15
I0
sg16
(i__main__
Node
p2117
(dp2118
g2
Nsg3
Nsg14
I5
sg15
Nsg16
Nsbsbsbsbsbsbsbsbsg14
I5
sg15
I6
sg16
(i__main__
Node
p2119
(dp2120
g2
I602
sg3
(i__main__
Node
p2121
(dp2122
g2
Nsg3
Nsg14
I7
sg15
Nsg16
Nsbsg14
I5
sg15
I8
sg16
(i__main__
Node
p2123
(dp2124
g2
I238
sg3
(i__main__
Node
p2125
(dp2126
g2
Nsg3
Nsg14
I5
sg15
Nsg16
Nsbsg14
I5
sg15
I1
sg16
(i__main__
Node
p2127
(dp2128
g2
I217
sg3
(i__main__
Node
p2129
(dp2130
g2
Nsg3
Nsg14
I4
sg15
Nsg16
Nsbsg14
I5
sg15
I1
sg16
(i__main__
Node
p2131
(dp2132
g2
Nsg3
Nsg14
I5
sg15
Nsg16
Nsbsbsbsbsbsg14
I5
sg15
I4
sg16
(i__main__
Node
p2133
(dp2134
g2
I154
sg3
(i__main__
Node
p2135
(dp2136
g2
I322
sg3
(i__main__
Node
p2137
(dp2138
g2
I350
sg3
(i__main__
Node
p2139
(dp2140
g2
Nsg3
Nsg14
I5
sg15
Nsg16
Nsbsg14
I6
sg15
I3
sg16
(i__main__
Node
p2141
(dp2142
g2
Nsg3
Nsg14
I6
sg15
Nsg16
Nsbsbsg14
I6
sg15
I0
sg16
(i__main__
Node
p2143
(dp2144
g2
I455
sg3
(i__main__
Node
p2145
(dp2146
g2
Nsg3
Nsg14
I6
sg15
Nsg16
Nsbsg14
I6
sg15
I6
sg16
(i__main__
Node
p2147
(dp2148
g2
I189
sg3
(i__main__
Node
p2149
(dp2150
g2
I217
sg3
(i__main__
Node
p2151
(dp2152
g2
I231
sg3
(i__main__
Node
p2153
(dp2154
g2
I210
sg3
(i__main__
Node
p2155
(dp2156
g2
I315
sg3
(i__main__
Node
p2157
(dp2158
g2
Nsg3
Nsg14
I5
sg15
Nsg16
Nsbsg14
I6
sg15
I0
sg16
(i__main__
Node
p2159
(dp2160
g2
Nsg3
Nsg14
I6
sg15
Nsg16
Nsbsbsg14
I6
sg15
I0
sg16
(i__main__
Node
p2161
(dp2162
g2
Nsg3
Nsg14
I5
sg15
Nsg16
Nsbsbsg14
I6
sg15
I2
sg16
(i__main__
Node
p2163
(dp2164
g2
Nsg3
Nsg14
I7
sg15
Nsg16
Nsbsbsg14
I5
sg15
I2
sg16
(i__main__
Node
p2165
(dp2166
g2
I357
sg3
(i__main__
Node
p2167
(dp2168
g2
I28
sg3
(i__main__
Node
p2169
(dp2170
g2
I462
sg3
(i__main__
Node
p2171
(dp2172
g2
Nsg3
Nsg14
I5
sg15
Nsg16
Nsbsg14
I5
sg15
I9
sg16
(i__main__
Node
p2173
(dp2174
g2
I210
sg3
(i__main__
Node
p2175
(dp2176
g2
Nsg3
Nsg14
I6
sg15
Nsg16
Nsbsg14
I6
sg15
I0
sg16
(i__main__
Node
p2177
(dp2178
g2
Nsg3
Nsg14
I5
sg15
Nsg16
Nsbsbsbsg14
I6
sg15
I3
sg16
(i__main__
Node
p2179
(dp2180
g2
Nsg3
Nsg14
I6
sg15
Nsg16
Nsbsbsg14
I5
sg15
I9
sg16
(i__main__
Node
p2181
(dp2182
g2
Nsg3
Nsg14
I5
sg15
Nsg16
Nsbsbsbsg14
I5
sg15
I0
sg16
(i__main__
Node
p2183
(dp2184
g2
I77
sg3
(i__main__
Node
p2185
(dp2186
g2
Nsg3
Nsg14
I7
sg15
Nsg16
Nsbsg14
I6
sg15
I4
sg16
(i__main__
Node
p2187
(dp2188
g2
Nsg3
Nsg14
I6
sg15
Nsg16
Nsbsbsbsbsbsg14
I6
sg15
I9
sg16
(i__main__
Node
p2189
(dp2190
g2
I301
sg3
(i__main__
Node
p2191
(dp2192
g2
I322
sg3
(i__main__
Node
p2193
(dp2194
g2
Nsg3
Nsg14
I5
sg15
Nsg16
Nsbsg14
I4
sg15
I0
sg16
(i__main__
Node
p2195
(dp2196
g2
Nsg3
Nsg14
I4
sg15
Nsg16
Nsbsbsg14
I5
sg15
I0
sg16
(i__main__
Node
p2197
(dp2198
g2
Nsg3
Nsg14
I5
sg15
Nsg16
Nsbsbsbsbsbsg14
I5
sg15
I5
sg16
(i__main__
Node
p2199
(dp2200
g2
I35
sg3
(i__main__
Node
p2201
(dp2202
g2
I168
sg3
(i__main__
Node
p2203
(dp2204
g2
Nsg3
Nsg14
I5
sg15
Nsg16
Nsbsg14
I5
sg15
I2
sg16
(i__main__
Node
p2205
(dp2206
g2
I224
sg3
(i__main__
Node
p2207
(dp2208
g2
Nsg3
Nsg14
I4
sg15
Nsg16
Nsbsg14
I4
sg15
I0
sg16
(i__main__
Node
p2209
(dp2210
g2
Nsg3
Nsg14
I5
sg15
Nsg16
Nsbsbsbsg14
I4
sg15
I3
sg16
(i__main__
Node
p2211
(dp2212
g2
Nsg3
Nsg14
I4
sg15
Nsg16
Nsbsbsbsbsg14
I6
sg15
I1
sg16
(i__main__
Node
p2213
(dp2214
g2
I126
sg3
(i__main__
Node
p2215
(dp2216
g2
I294
sg3
(i__main__
Node
p2217
(dp2218
g2
I49
sg3
(i__main__
Node
p2219
(dp2220
g2
I511
sg3
(i__main__
Node
p2221
(dp2222
g2
I301
sg3
(i__main__
Node
p2223
(dp2224
g2
I574
sg3
(i__main__
Node
p2225
(dp2226
g2
Nsg3
Nsg14
I6
sg15
Nsg16
Nsbsg14
I6
sg15
I8
sg16
(i__main__
Node
p2227
(dp2228
g2
I77
sg3
(i__main__
Node
p2229
(dp2230
g2
I343
sg3
(i__main__
Node
p2231
(dp2232
g2
Nsg3
Nsg14
I6
sg15
Nsg16
Nsbsg14
I7
sg15
I0
sg16
(i__main__
Node
p2233
(dp2234
g2
Nsg3
Nsg14
I7
sg15
Nsg16
Nsbsbsg14
I4
sg15
I5
sg16
(i__main__
Node
p2235
(dp2236
g2
Nsg3
Nsg14
I4
sg15
Nsg16
Nsbsbsbsg14
I6
sg15
I0
sg16
(i__main__
Node
p2237
(dp2238
g2
I406
sg3
(i__main__
Node
p2239
(dp2240
g2
I385
sg3
(i__main__
Node
p2241
(dp2242
g2
Nsg3
Nsg14
I5
sg15
Nsg16
Nsbsg14
I7
sg15
I6
sg16
(i__main__
Node
p2243
(dp2244
g2
I546
sg3
(i__main__
Node
p2245
(dp2246
g2
Nsg3
Nsg14
I7
sg15
Nsg16
Nsbsg14
I7
sg15
I8
sg16
(i__main__
Node
p2247
(dp2248
g2
I189
sg3
(i__main__
Node
p2249
(dp2250
g2
I203
sg3
(i__main__
Node
p2251
(dp2252
g2
Nsg3
Nsg14
I7
sg15
Nsg16
Nsbsg14
I7
sg15
I6
sg16
(i__main__
Node
p2253
(dp2254
g2
Nsg3
Nsg14
I6
sg15
Nsg16
Nsbsbsg14
I7
sg15
I0
sg16
(i__main__
Node
p2255
(dp2256
g2
Nsg3
Nsg14
I6
sg15
Nsg16
Nsbsbsbsbsg14
I6
sg15
I10
sg16
(i__main__
Node
p2257
(dp2258
g2
I378
sg3
(i__main__
Node
p2259
(dp2260
g2
I168
sg3
(i__main__
Node
p2261
(dp2262
g2
Nsg3
Nsg14
I5
sg15
Nsg16
Nsbsg14
I5
sg15
I1
sg16
(i__main__
Node
p2263
(dp2264
g2
I273
sg3
(i__main__
Node
p2265
(dp2266
g2
Nsg3
Nsg14
I5
sg15
Nsg16
Nsbsg14
I6
sg15
I0
sg16
(i__main__
Node
p2267
(dp2268
g2
Nsg3
Nsg14
I6
sg15
Nsg16
Nsbsbsbsg14
I6
sg15
I3
sg16
(i__main__
Node
p2269
(dp2270
g2
I245
sg3
(i__main__
Node
p2271
(dp2272
g2
I455
sg3
(i__main__
Node
p2273
(dp2274
g2
Nsg3
Nsg14
I7
sg15
Nsg16
Nsbsg14
I6
sg15
I7
sg16
(i__main__
Node
p2275
(dp2276
g2
I35
sg3
(i__main__
Node
p2277
(dp2278
g2
Nsg3
Nsg14
I6
sg15
Nsg16
Nsbsg14
I6
sg15
I3
sg16
(i__main__
Node
p2279
(dp2280
g2
I630
sg3
(i__main__
Node
p2281
(dp2282
g2
Nsg3
Nsg14
I6
sg15
Nsg16
Nsbsg14
I7
sg15
I8
sg16
(i__main__
Node
p2283
(dp2284
g2
Nsg3
Nsg14
I7
sg15
Nsg16
Nsbsbsbsbsg14
I6
sg15
I0
sg16
(i__main__
Node
p2285
(dp2286
g2
I119
sg3
(i__main__
Node
p2287
(dp2288
g2
I217
sg3
(i__main__
Node
p2289
(dp2290
g2
I371
sg3
(i__main__
Node
p2291
(dp2292
g2
Nsg3
Nsg14
I6
sg15
Nsg16
Nsbsg14
I6
sg15
I9
sg16
(i__main__
Node
p2293
(dp2294
g2
I140
sg3
(i__main__
Node
p2295
(dp2296
g2
I294
sg3
(i__main__
Node
p2297
(dp2298
g2
Nsg3
Nsg14
I7
sg15
Nsg16
Nsbsg14
I6
sg15
I6
sg16
(i__main__
Node
p2299
(dp2300
g2
Nsg3
Nsg14
I6
sg15
Nsg16
Nsbsbsg14
I6
sg15
I1
sg16
(i__main__
Node
p2301
(dp2302
g2
Nsg3
Nsg14
I5
sg15
Nsg16
Nsbsbsbsg14
I6
sg15
I6
sg16
(i__main__
Node
p2303
(dp2304
g2
Nsg3
Nsg14
I5
sg15
Nsg16
Nsbsbsg14
I6
sg15
I9
sg16
(i__main__
Node
p2305
(dp2306
g2
Nsg3
Nsg14
I7
sg15
Nsg16
Nsbsbsbsbsbsbsg14
I6
sg15
I8
sg16
(i__main__
Node
p2307
(dp2308
g2
I455
sg3
(i__main__
Node
p2309
(dp2310
g2
I399
sg3
(i__main__
Node
p2311
(dp2312
g2
I448
sg3
(i__main__
Node
p2313
(dp2314
g2
Nsg3
Nsg14
I4
sg15
Nsg16
Nsbsg14
I3
sg15
I0
sg16
(i__main__
Node
p2315
(dp2316
g2
Nsg3
Nsg14
I3
sg15
Nsg16
Nsbsbsg14
I6
sg15
I0
sg16
(i__main__
Node
p2317
(dp2318
g2
Nsg3
Nsg14
I6
sg15
Nsg16
Nsbsbsg14
I6
sg15
I7
sg16
(i__main__
Node
p2319
(dp2320
g2
I189
sg3
(i__main__
Node
p2321
(dp2322
g2
I420
sg3
(i__main__
Node
p2323
(dp2324
g2
I168
sg3
(i__main__
Node
p2325
(dp2326
g2
Nsg3
Nsg14
I5
sg15
Nsg16
Nsbsg14
I5
sg15
I0
sg16
(i__main__
Node
p2327
(dp2328
g2
Nsg3
Nsg14
I7
sg15
Nsg16
Nsbsbsg14
I5
sg15
I8
sg16
(i__main__
Node
p2329
(dp2330
g2
I238
sg3
(i__main__
Node
p2331
(dp2332
g2
Nsg3
Nsg14
I6
sg15
Nsg16
Nsbsg14
I6
sg15
I3
sg16
(i__main__
Node
p2333
(dp2334
g2
Nsg3
Nsg14
I5
sg15
Nsg16
Nsbsbsbsg14
I6
sg15
I5
sg16
(i__main__
Node
p2335
(dp2336
g2
I336
sg3
(i__main__
Node
p2337
(dp2338
g2
I35
sg3
(i__main__
Node
p2339
(dp2340
g2
Nsg3
Nsg14
I6
sg15
Nsg16
Nsbsg14
I6
sg15
I3
sg16
(i__main__
Node
p2341
(dp2342
g2
I287
sg3
(i__main__
Node
p2343
(dp2344
g2
Nsg3
Nsg14
I5
sg15
Nsg16
Nsbsg14
I6
sg15
I0
sg16
(i__main__
Node
p2345
(dp2346
g2
Nsg3
Nsg14
I6
sg15
Nsg16
Nsbsbsbsg14
I6
sg15
I6
sg16
(i__main__
Node
p2347
(dp2348
g2
I252
sg3
(i__main__
Node
p2349
(dp2350
g2
I448
sg3
(i__main__
Node
p2351
(dp2352
g2
I294
sg3
(i__main__
Node
p2353
(dp2354
g2
I203
sg3
(i__main__
Node
p2355
(dp2356
g2
Nsg3
Nsg14
I6
sg15
Nsg16
Nsbsg14
I5
sg15
I2
sg16
(i__main__
Node
p2357
(dp2358
g2
I168
sg3
(i__main__
Node
p2359
(dp2360
g2
Nsg3
Nsg14
I6
sg15
Nsg16
Nsbsg14
I5
sg15
I5
sg16
(i__main__
Node
p2361
(dp2362
g2
Nsg3
Nsg14
I5
sg15
Nsg16
Nsbsbsbsg14
I6
sg15
I7
sg16
(i__main__
Node
p2363
(dp2364
g2
Nsg3
Nsg14
I6
sg15
Nsg16
Nsbsbsg14
I6
sg15
I8
sg16
(i__main__
Node
p2365
(dp2366
g2
I84
sg3
(i__main__
Node
p2367
(dp2368
g2
I308
sg3
(i__main__
Node
p2369
(dp2370
g2
I210
sg3
(i__main__
Node
p2371
(dp2372
g2
I350
sg3
(i__main__
Node
p2373
(dp2374
g2
Nsg3
Nsg14
I5
sg15
Nsg16
Nsbsg14
I7
sg15
I0
sg16
(i__main__
Node
p2375
(dp2376
g2
Nsg3
Nsg14
I7
sg15
Nsg16
Nsbsbsg14
I7
sg15
I0
sg16
(i__main__
Node
p2377
(dp2378
g2
Nsg3
Nsg14
I6
sg15
Nsg16
Nsbsbsg14
I7
sg15
I9
sg16
(i__main__
Node
p2379
(dp2380
g2
I210
sg3
(i__main__
Node
p2381
(dp2382
g2
I196
sg3
(i__main__
Node
p2383
(dp2384
g2
Nsg3
Nsg14
I5
sg15
Nsg16
Nsbsg14
I5
sg15
I2
sg16
(i__main__
Node
p2385
(dp2386
g2
I217
sg3
(i__main__
Node
p2387
(dp2388
g2
Nsg3
Nsg14
I6
sg15
Nsg16
Nsbsg14
I6
sg15
I0
sg16
(i__main__
Node
p2389
(dp2390
g2
Nsg3
Nsg14
I5
sg15
Nsg16
Nsbsbsbsg14
I5
sg15
I6
sg16
(i__main__
Node
p2391
(dp2392
g2
Nsg3
Nsg14
I7
sg15
Nsg16
Nsbsbsbsg14
I5
sg15
I5
sg16
(i__main__
Node
p2393
(dp2394
g2
I196
sg3
(i__main__
Node
p2395
(dp2396
g2
I182
sg3
(i__main__
Node
p2397
(dp2398
g2
I105
sg3
(i__main__
Node
p2399
(dp2400
g2
Nsg3
Nsg14
I6
sg15
Nsg16
Nsbsg14
I6
sg15
I3
sg16
(i__main__
Node
p2401
(dp2402
g2
I28
sg3
(i__main__
Node
p2403
(dp2404
g2
Nsg3
Nsg14
I5
sg15
Nsg16
Nsbsg14
I5
sg15
I3
sg16
(i__main__
Node
p2405
(dp2406
g2
Nsg3
Nsg14
I6
sg15
Nsg16
Nsbsbsbsg14
I6
sg15
I6
sg16
(i__main__
Node
p2407
(dp2408
g2
Nsg3
Nsg14
I5
sg15
Nsg16
Nsbsbsg14
I5
sg15
I2
sg16
(i__main__
Node
p2409
(dp2410
g2
Nsg3
Nsg14
I5
sg15
Nsg16
Nsbsbsbsbsg14
I6
sg15
I7
sg16
(i__main__
Node
p2411
(dp2412
g2
I189
sg3
(i__main__
Node
p2413
(dp2414
g2
I203
sg3
(i__main__
Node
p2415
(dp2416
g2
I266
sg3
(i__main__
Node
p2417
(dp2418
g2
I238
sg3
(i__main__
Node
p2419
(dp2420
g2
Nsg3
Nsg14
I7
sg15
Nsg16
Nsbsg14
I6
sg15
I0
sg16
(i__main__
Node
p2421
(dp2422
g2
Nsg3
Nsg14
I6
sg15
Nsg16
Nsbsbsg14
I6
sg15
I2
sg16
(i__main__
Node
p2423
(dp2424
g2
Nsg3
Nsg14
I6
sg15
Nsg16
Nsbsbsg14
I6
sg15
I6
sg16
(i__main__
Node
p2425
(dp2426
g2
Nsg3
Nsg14
I7
sg15
Nsg16
Nsbsbsg14
I6
sg15
I0
sg16
(i__main__
Node
p2427
(dp2428
g2
I133
sg3
(i__main__
Node
p2429
(dp2430
g2
Nsg3
Nsg14
I5
sg15
Nsg16
Nsbsg14
I5
sg15
I1
sg16
(i__main__
Node
p2431
(dp2432
g2
Nsg3
Nsg14
I6
sg15
Nsg16
Nsbsbsbsbsbsbsbsbsg14
I6
sg15
I5
sg16
(i__main__
Node
p2433
(dp2434
g2
I147
sg3
(i__main__
Node
p2435
(dp2436
g2
I238
sg3
(i__main__
Node
p2437
(dp2438
g2
I294
sg3
(i__main__
Node
p2439
(dp2440
g2
Nsg3
Nsg14
I5
sg15
Nsg16
Nsbsg14
I5
sg15
I0
sg16
(i__main__
Node
p2441
(dp2442
g2
I196
sg3
(i__main__
Node
p2443
(dp2444
g2
Nsg3
Nsg14
I6
sg15
Nsg16
Nsbsg14
I6
sg15
I0
sg16
(i__main__
Node
p2445
(dp2446
g2
Nsg3
Nsg14
I5
sg15
Nsg16
Nsbsbsbsg14
I5
sg15
I6
sg16
(i__main__
Node
p2447
(dp2448
g2
I420
sg3
(i__main__
Node
p2449
(dp2450
g2
Nsg3
Nsg14
I5
sg15
Nsg16
Nsbsg14
I6
sg15
I0
sg16
(i__main__
Node
p2451
(dp2452
g2
I217
sg3
(i__main__
Node
p2453
(dp2454
g2
Nsg3
Nsg14
I6
sg15
Nsg16
Nsbsg14
I6
sg15
I2
sg16
(i__main__
Node
p2455
(dp2456
g2
I266
sg3
(i__main__
Node
p2457
(dp2458
g2
Nsg3
Nsg14
I8
sg15
Nsg16
Nsbsg14
I8
sg15
I0
sg16
(i__main__
Node
p2459
(dp2460
g2
Nsg3
Nsg14
I6
sg15
Nsg16
Nsbsbsbsbsbsg14
I5
sg15
I6
sg16
(i__main__
Node
p2461
(dp2462
g2
I112
sg3
(i__main__
Node
p2463
(dp2464
g2
I42
sg3
(i__main__
Node
p2465
(dp2466
g2
Nsg3
Nsg14
I5
sg15
Nsg16
Nsbsg14
I5
sg15
I6
sg16
(i__main__
Node
p2467
(dp2468
g2
Nsg3
Nsg14
I4
sg15
Nsg16
Nsbsbsg14
I5
sg15
I2
sg16
(i__main__
Node
p2469
(dp2470
g2
Nsg3
Nsg14
I4
sg15
Nsg16
Nsbsbsbsbsg14
I6
sg15
I10
sg16
(i__main__
Node
p2471
(dp2472
g2
I287
sg3
(i__main__
Node
p2473
(dp2474
g2
I140
sg3
(i__main__
Node
p2475
(dp2476
g2
I392
sg3
(i__main__
Node
p2477
(dp2478
g2
I196
sg3
(i__main__
Node
p2479
(dp2480
g2
I203
sg3
(i__main__
Node
p2481
(dp2482
g2
I476
sg3
(i__main__
Node
p2483
(dp2484
g2
Nsg3
Nsg14
I6
sg15
Nsg16
Nsbsg14
I5
sg15
I6
sg16
(i__main__
Node
p2485
(dp2486
g2
Nsg3
Nsg14
I5
sg15
Nsg16
Nsbsbsg14
I6
sg15
I5
sg16
(i__main__
Node
p2487
(dp2488
g2
I455
sg3
(i__main__
Node
p2489
(dp2490
g2
I126
sg3
(i__main__
Node
p2491
(dp2492
g2
I161
sg3
(i__main__
Node
p2493
(dp2494
g2
I399
sg3
(i__main__
Node
p2495
(dp2496
g2
Nsg3
Nsg14
I6
sg15
Nsg16
Nsbsg14
I5
sg15
I0
sg16
(i__main__
Node
p2497
(dp2498
g2
Nsg3
Nsg14
I5
sg15
Nsg16
Nsbsbsg14
I5
sg15
I1
sg16
(i__main__
Node
p2499
(dp2500
g2
Nsg3
Nsg14
I5
sg15
Nsg16
Nsbsbsg14
I5
sg15
I5
sg16
(i__main__
Node
p2501
(dp2502
g2
Nsg3
Nsg14
I6
sg15
Nsg16
Nsbsbsg14
I6
sg15
I6
sg16
(i__main__
Node
p2503
(dp2504
g2
I427
sg3
(i__main__
Node
p2505
(dp2506
g2
I161
sg3
(i__main__
Node
p2507
(dp2508
g2
Nsg3
Nsg14
I7
sg15
Nsg16
Nsbsg14
I7
sg15
I1
sg16
(i__main__
Node
p2509
(dp2510
g2
I441
sg3
(i__main__
Node
p2511
(dp2512
g2
I294
sg3
(i__main__
Node
p2513
(dp2514
g2
Nsg3
Nsg14
I6
sg15
Nsg16
Nsbsg14
I6
sg15
I0
sg16
(i__main__
Node
p2515
(dp2516
g2
Nsg3
Nsg14
I7
sg15
Nsg16
Nsbsbsg14
I6
sg15
I3
sg16
(i__main__
Node
p2517
(dp2518
g2
Nsg3
Nsg14
I7
sg15
Nsg16
Nsbsbsbsg14
I6
sg15
I3
sg16
(i__main__
Node
p2519
(dp2520
g2
I413
sg3
(i__main__
Node
p2521
(dp2522
g2
Nsg3
Nsg14
I5
sg15
Nsg16
Nsbsg14
I6
sg15
I3
sg16
(i__main__
Node
p2523
(dp2524
g2
I336
sg3
(i__main__
Node
p2525
(dp2526
g2
I392
sg3
(i__main__
Node
p2527
(dp2528
g2
Nsg3
Nsg14
I7
sg15
Nsg16
Nsbsg14
I6
sg15
I0
sg16
(i__main__
Node
p2529
(dp2530
g2
Nsg3
Nsg14
I6
sg15
Nsg16
Nsbsbsg14
I6
sg15
I0
sg16
(i__main__
Node
p2531
(dp2532
g2
I315
sg3
(i__main__
Node
p2533
(dp2534
g2
Nsg3
Nsg14
I7
sg15
Nsg16
Nsbsg14
I5
sg15
I0
sg16
(i__main__
Node
p2535
(dp2536
g2
Nsg3
Nsg14
I5
sg15
Nsg16
Nsbsbsbsbsbsbsbsg14
I6
sg15
I8
sg16
(i__main__
Node
p2537
(dp2538
g2
Nsg3
Nsg14
I6
sg15
Nsg16
Nsbsbsg14
I6
sg15
I6
sg16
(i__main__
Node
p2539
(dp2540
g2
I133
sg3
(i__main__
Node
p2541
(dp2542
g2
I119
sg3
(i__main__
Node
p2543
(dp2544
g2
Nsg3
Nsg14
I6
sg15
Nsg16
Nsbsg14
I6
sg15
I2
sg16
(i__main__
Node
p2545
(dp2546
g2
Nsg3
Nsg14
I5
sg15
Nsg16
Nsbsbsg14
I6
sg15
I5
sg16
(i__main__
Node
p2547
(dp2548
g2
I105
sg3
(i__main__
Node
p2549
(dp2550
g2
I168
sg3
(i__main__
Node
p2551
(dp2552
g2
I98
sg3
(i__main__
Node
p2553
(dp2554
g2
I112
sg3
(i__main__
Node
p2555
(dp2556
g2
Nsg3
Nsg14
I5
sg15
Nsg16
Nsbsg14
I5
sg15
I3
sg16
(i__main__
Node
p2557
(dp2558
g2
Nsg3
Nsg14
I6
sg15
Nsg16
Nsbsbsg14
I6
sg15
I4
sg16
(i__main__
Node
p2559
(dp2560
g2
I448
sg3
(i__main__
Node
p2561
(dp2562
g2
I133
sg3
(i__main__
Node
p2563
(dp2564
g2
Nsg3
Nsg14
I5
sg15
Nsg16
Nsbsg14
I5
sg15
I1
sg16
(i__main__
Node
p2565
(dp2566
g2
Nsg3
Nsg14
I6
sg15
Nsg16
Nsbsbsg14
I6
sg15
I0
sg16
(i__main__
Node
p2567
(dp2568
g2
Nsg3
Nsg14
I6
sg15
Nsg16
Nsbsbsbsg14
I6
sg15
I10
sg16
(i__main__
Node
p2569
(dp2570
g2
Nsg3
Nsg14
I6
sg15
Nsg16
Nsbsbsg14
I5
sg15
I3
sg16
(i__main__
Node
p2571
(dp2572
g2
I266
sg3
(i__main__
Node
p2573
(dp2574
g2
I119
sg3
(i__main__
Node
p2575
(dp2576
g2
Nsg3
Nsg14
I4
sg15
Nsg16
Nsbsg14
I4
sg15
I4
sg16
(i__main__
Node
p2577
(dp2578
g2
I434
sg3
(i__main__
Node
p2579
(dp2580
g2
Nsg3
Nsg14
I5
sg15
Nsg16
Nsbsg14
I5
sg15
I0
sg16
(i__main__
Node
p2581
(dp2582
g2
Nsg3
Nsg14
I6
sg15
Nsg16
Nsbsbsbsg14
I5
sg15
I6
sg16
(i__main__
Node
p2583
(dp2584
g2
I14
sg3
(i__main__
Node
p2585
(dp2586
g2
Nsg3
Nsg14
I5
sg15
Nsg16
Nsbsg14
I5
sg15
I3
sg16
(i__main__
Node
p2587
(dp2588
g2
Nsg3
Nsg14
I6
sg15
Nsg16
Nsbsbsbsbsbsbsg14
I6
sg15
I10
sg16
(i__main__
Node
p2589
(dp2590
g2
I364
sg3
(i__main__
Node
p2591
(dp2592
g2
I154
sg3
(i__main__
Node
p2593
(dp2594
g2
Nsg3
Nsg14
I6
sg15
Nsg16
Nsbsg14
I7
sg15
I1
sg16
(i__main__
Node
p2595
(dp2596
g2
Nsg3
Nsg14
I7
sg15
Nsg16
Nsbsbsg14
I5
sg15
I0
sg16
(i__main__
Node
p2597
(dp2598
g2
I294
sg3
(i__main__
Node
p2599
(dp2600
g2
Nsg3
Nsg14
I5
sg15
Nsg16
Nsbsg14
I5
sg15
I0
sg16
(i__main__
Node
p2601
(dp2602
g2
Nsg3
Nsg14
I8
sg15
Nsg16
Nsbsbsbsbsg14
I5
sg15
I0
sg16
(i__main__
Node
p2603
(dp2604
g2
I259
sg3
(i__main__
Node
p2605
(dp2606
g2
I455
sg3
(i__main__
Node
p2607
(dp2608
g2
I224
sg3
(i__main__
Node
p2609
(dp2610
g2
Nsg3
Nsg14
I6
sg15
Nsg16
Nsbsg14
I6
sg15
I3
sg16
(i__main__
Node
p2611
(dp2612
g2
I140
sg3
(i__main__
Node
p2613
(dp2614
g2
Nsg3
Nsg14
I6
sg15
Nsg16
Nsbsg14
I5
sg15
I1
sg16
(i__main__
Node
p2615
(dp2616
g2
Nsg3
Nsg14
I5
sg15
Nsg16
Nsbsbsbsg14
I5
sg15
I8
sg16
(i__main__
Node
p2617
(dp2618
g2
I497
sg3
(i__main__
Node
p2619
(dp2620
g2
I273
sg3
(i__main__
Node
p2621
(dp2622
g2
Nsg3
Nsg14
I5
sg15
Nsg16
Nsbsg14
I6
sg15
I0
sg16
(i__main__
Node
p2623
(dp2624
g2
Nsg3
Nsg14
I6
sg15
Nsg16
Nsbsbsg14
I5
sg15
I7
sg16
(i__main__
Node
p2625
(dp2626
g2
Nsg3
Nsg14
I5
sg15
Nsg16
Nsbsbsbsg14
I5
sg15
I2
sg16
(i__main__
Node
p2627
(dp2628
g2
I476
sg3
(i__main__
Node
p2629
(dp2630
g2
I588
sg3
(i__main__
Node
p2631
(dp2632
g2
I91
sg3
(i__main__
Node
p2633
(dp2634
g2
I175
sg3
(i__main__
Node
p2635
(dp2636
g2
Nsg3
Nsg14
I6
sg15
Nsg16
Nsbsg14
I6
sg15
I2
sg16
(i__main__
Node
p2637
(dp2638
g2
I189
sg3
(i__main__
Node
p2639
(dp2640
g2
Nsg3
Nsg14
I5
sg15
Nsg16
Nsbsg14
I5
sg15
I0
sg16
(i__main__
Node
p2641
(dp2642
g2
Nsg3
Nsg14
I6
sg15
Nsg16
Nsbsbsbsg14
I6
sg15
I4
sg16
(i__main__
Node
p2643
(dp2644
g2
I224
sg3
(i__main__
Node
p2645
(dp2646
g2
Nsg3
Nsg14
I7
sg15
Nsg16
Nsbsg14
I7
sg15
I0
sg16
(i__main__
Node
p2647
(dp2648
g2
Nsg3
Nsg14
I4
sg15
Nsg16
Nsbsbsbsg14
I5
sg15
I8
sg16
(i__main__
Node
p2649
(dp2650
g2
I350
sg3
(i__main__
Node
p2651
(dp2652
g2
I133
sg3
(i__main__
Node
p2653
(dp2654
g2
I140
sg3
(i__main__
Node
p2655
(dp2656
g2
I217
sg3
(i__main__
Node
p2657
(dp2658
g2
Nsg3
Nsg14
I5
sg15
Nsg16
Nsbsg14
I5
sg15
I0
sg16
(i__main__
Node
p2659
(dp2660
g2
Nsg3
Nsg14
I6
sg15
Nsg16
Nsbsbsg14
I5
sg15
I4
sg16
(i__main__
Node
p2661
(dp2662
g2
Nsg3
Nsg14
I5
sg15
Nsg16
Nsbsbsg14
I5
sg15
I2
sg16
(i__main__
Node
p2663
(dp2664
g2
Nsg3
Nsg14
I6
sg15
Nsg16
Nsbsbsg14
I5
sg15
I7
sg16
(i__main__
Node
p2665
(dp2666
g2
I210
sg3
(i__main__
Node
p2667
(dp2668
g2
Nsg3
Nsg14
I5
sg15
Nsg16
Nsbsg14
I6
sg15
I2
sg16
(i__main__
Node
p2669
(dp2670
g2
Nsg3
Nsg14
I6
sg15
Nsg16
Nsbsbsbsbsg14
I6
sg15
I8
sg16
(i__main__
Node
p2671
(dp2672
g2
I329
sg3
(i__main__
Node
p2673
(dp2674
g2
I196
sg3
(i__main__
Node
p2675
(dp2676
g2
Nsg3
Nsg14
I5
sg15
Nsg16
Nsbsg14
I6
sg15
I4
sg16
(i__main__
Node
p2677
(dp2678
g2
I84
sg3
(i__main__
Node
p2679
(dp2680
g2
Nsg3
Nsg14
I6
sg15
Nsg16
Nsbsg14
I6
sg15
I4
sg16
(i__main__
Node
p2681
(dp2682
g2
I224
sg3
(i__main__
Node
p2683
(dp2684
g2
Nsg3
Nsg14
I5
sg15
Nsg16
Nsbsg14
I5
sg15
I0
sg16
(i__main__
Node
p2685
(dp2686
g2
Nsg3
Nsg14
I6
sg15
Nsg16
Nsbsbsbsbsg14
I6
sg15
I3
sg16
(i__main__
Node
p2687
(dp2688
g2
I161
sg3
(i__main__
Node
p2689
(dp2690
g2
I399
sg3
(i__main__
Node
p2691
(dp2692
g2
I133
sg3
(i__main__
Node
p2693
(dp2694
g2
Nsg3
Nsg14
I5
sg15
Nsg16
Nsbsg14
I5
sg15
I8
sg16
(i__main__
Node
p2695
(dp2696
g2
Nsg3
Nsg14
I6
sg15
Nsg16
Nsbsbsg14
I6
sg15
I7
sg16
(i__main__
Node
p2697
(dp2698
g2
I105
sg3
(i__main__
Node
p2699
(dp2700
g2
I350
sg3
(i__main__
Node
p2701
(dp2702
g2
I189
sg3
(i__main__
Node
p2703
(dp2704
g2
I273
sg3
(i__main__
Node
p2705
(dp2706
g2
Nsg3
Nsg14
I6
sg15
Nsg16
Nsbsg14
I6
sg15
I9
sg16
(i__main__
Node
p2707
(dp2708
g2
Nsg3
Nsg14
I5
sg15
Nsg16
Nsbsbsg14
I5
sg15
I2
sg16
(i__main__
Node
p2709
(dp2710
g2
Nsg3
Nsg14
I5
sg15
Nsg16
Nsbsbsg14
I6
sg15
I6
sg16
(i__main__
Node
p2711
(dp2712
g2
I273
sg3
(i__main__
Node
p2713
(dp2714
g2
Nsg3
Nsg14
I5
sg15
Nsg16
Nsbsg14
I6
sg15
I0
sg16
(i__main__
Node
p2715
(dp2716
g2
Nsg3
Nsg14
I6
sg15
Nsg16
Nsbsbsbsg14
I6
sg15
I4
sg16
(i__main__
Node
p2717
(dp2718
g2
Nsg3
Nsg14
I6
sg15
Nsg16
Nsbsbsbsg14
I5
sg15
I2
sg16
(i__main__
Node
p2719
(dp2720
g2
I21
sg3
(i__main__
Node
p2721
(dp2722
g2
I105
sg3
(i__main__
Node
p2723
(dp2724
g2
Nsg3
Nsg14
I5
sg15
Nsg16
Nsbsg14
I5
sg15
I10
sg16
(i__main__
Node
p2725
(dp2726
g2
Nsg3
Nsg14
I6
sg15
Nsg16
Nsbsbsg14
I5
sg15
I3
sg16
(i__main__
Node
p2727
(dp2728
g2
Nsg3
Nsg14
I6
sg15
Nsg16
Nsbsbsbsbsbsbsbsbsg14
I6
sg15
I1
sg16
(i__main__
Node
p2729
(dp2730
g2
I392
sg3
(i__main__
Node
p2731
(dp2732
g2
I196
sg3
(i__main__
Node
p2733
(dp2734
g2
I231
sg3
(i__main__
Node
p2735
(dp2736
g2
I371
sg3
(i__main__
Node
p2737
(dp2738
g2
Nsg3
Nsg14
I7
sg15
Nsg16
Nsbsg14
I6
sg15
I10
sg16
(i__main__
Node
p2739
(dp2740
g2
I238
sg3
(i__main__
Node
p2741
(dp2742
g2
I287
sg3
(i__main__
Node
p2743
(dp2744
g2
I413
sg3
(i__main__
Node
p2745
(dp2746
g2
I259
sg3
(i__main__
Node
p2747
(dp2748
g2
Nsg3
Nsg14
I7
sg15
Nsg16
Nsbsg14
I6
sg15
I0
sg16
(i__main__
Node
p2749
(dp2750
g2
Nsg3
Nsg14
I6
sg15
Nsg16
Nsbsbsg14
I6
sg15
I6
sg16
(i__main__
Node
p2751
(dp2752
g2
Nsg3
Nsg14
I6
sg15
Nsg16
Nsbsbsg14
I6
sg15
I9
sg16
(i__main__
Node
p2753
(dp2754
g2
I252
sg3
(i__main__
Node
p2755
(dp2756
g2
Nsg3
Nsg14
I5
sg15
Nsg16
Nsbsg14
I5
sg15
I2
sg16
(i__main__
Node
p2757
(dp2758
g2
Nsg3
Nsg14
I6
sg15
Nsg16
Nsbsbsbsg14
I6
sg15
I2
sg16
(i__main__
Node
p2759
(dp2760
g2
Nsg3
Nsg14
I5
sg15
Nsg16
Nsbsbsbsg14
I6
sg15
I2
sg16
(i__main__
Node
p2761
(dp2762
g2
Nsg3
Nsg14
I6
sg15
Nsg16
Nsbsbsg14
I6
sg15
I2
sg16
(i__main__
Node
p2763
(dp2764
g2
I189
sg3
(i__main__
Node
p2765
(dp2766
g2
I182
sg3
(i__main__
Node
p2767
(dp2768
g2
Nsg3
Nsg14
I5
sg15
Nsg16
Nsbsg14
I6
sg15
I5
sg16
(i__main__
Node
p2769
(dp2770
g2
I175
sg3
(i__main__
Node
p2771
(dp2772
g2
I287
sg3
(i__main__
Node
p2773
(dp2774
g2
I112
sg3
(i__main__
Node
p2775
(dp2776
g2
Nsg3
Nsg14
I7
sg15
Nsg16
Nsbsg14
I7
sg15
I4
sg16
(i__main__
Node
p2777
(dp2778
g2
Nsg3
Nsg14
I6
sg15
Nsg16
Nsbsbsg14
I7
sg15
I0
sg16
(i__main__
Node
p2779
(dp2780
g2
Nsg3
Nsg14
I6
sg15
Nsg16
Nsbsbsg14
I6
sg15
I2
sg16
(i__main__
Node
p2781
(dp2782
g2
Nsg3
Nsg14
I6
sg15
Nsg16
Nsbsbsbsg14
I7
sg15
I10
sg16
(i__main__
Node
p2783
(dp2784
g2
I147
sg3
(i__main__
Node
p2785
(dp2786
g2
I399
sg3
(i__main__
Node
p2787
(dp2788
g2
Nsg3
Nsg14
I8
sg15
Nsg16
Nsbsg14
I8
sg15
I3
sg16
(i__main__
Node
p2789
(dp2790
g2
Nsg3
Nsg14
I7
sg15
Nsg16
Nsbsbsg14
I7
sg15
I5
sg16
(i__main__
Node
p2791
(dp2792
g2
I224
sg3
(i__main__
Node
p2793
(dp2794
g2
I399
sg3
(i__main__
Node
p2795
(dp2796
g2
Nsg3
Nsg14
I6
sg15
Nsg16
Nsbsg14
I7
sg15
I3
sg16
(i__main__
Node
p2797
(dp2798
g2
Nsg3
Nsg14
I7
sg15
Nsg16
Nsbsbsg14
I7
sg15
I8
sg16
(i__main__
Node
p2799
(dp2800
g2
Nsg3
Nsg14
I7
sg15
Nsg16
Nsbsbsbsbsbsg14
I6
sg15
I3
sg16
(i__main__
Node
p2801
(dp2802
g2
I476
sg3
(i__main__
Node
p2803
(dp2804
g2
I315
sg3
(i__main__
Node
p2805
(dp2806
g2
I84
sg3
(i__main__
Node
p2807
(dp2808
g2
I336
sg3
(i__main__
Node
p2809
(dp2810
g2
I105
sg3
(i__main__
Node
p2811
(dp2812
g2
Nsg3
Nsg14
I6
sg15
Nsg16
Nsbsg14
I6
sg15
I1
sg16
(i__main__
Node
p2813
(dp2814
g2
I273
sg3
(i__main__
Node
p2815
(dp2816
g2
I210
sg3
(i__main__
Node
p2817
(dp2818
g2
Nsg3
Nsg14
I5
sg15
Nsg16
Nsbsg14
I6
sg15
I5
sg16
(i__main__
Node
p2819
(dp2820
g2
I315
sg3
(i__main__
Node
p2821
(dp2822
g2
I595
sg3
(i__main__
Node
p2823
(dp2824
g2
I385
sg3
(i__main__
Node
p2825
(dp2826
g2
Nsg3
Nsg14
I6
sg15
Nsg16
Nsbsg14
I5
sg15
I0
sg16
(i__main__
Node
p2827
(dp2828
g2
Nsg3
Nsg14
I5
sg15
Nsg16
Nsbsbsg14
I6
sg15
I8
sg16
(i__main__
Node
p2829
(dp2830
g2
Nsg3
Nsg14
I6
sg15
Nsg16
Nsbsbsg14
I6
sg15
I0
sg16
(i__main__
Node
p2831
(dp2832
g2
Nsg3
Nsg14
I6
sg15
Nsg16
Nsbsbsbsg14
I6
sg15
I0
sg16
(i__main__
Node
p2833
(dp2834
g2
I168
sg3
(i__main__
Node
p2835
(dp2836
g2
Nsg3
Nsg14
I5
sg15
Nsg16
Nsbsg14
I5
sg15
I3
sg16
(i__main__
Node
p2837
(dp2838
g2
Nsg3
Nsg14
I6
sg15
Nsg16
Nsbsbsbsbsg14
I6
sg15
I7
sg16
(i__main__
Node
p2839
(dp2840
g2
I112
sg3
(i__main__
Node
p2841
(dp2842
g2
Nsg3
Nsg14
I6
sg15
Nsg16
Nsbsg14
I6
sg15
I5
sg16
(i__main__
Node
p2843
(dp2844
g2
I259
sg3
(i__main__
Node
p2845
(dp2846
g2
Nsg3
Nsg14
I6
sg15
Nsg16
Nsbsg14
I6
sg15
I2
sg16
(i__main__
Node
p2847
(dp2848
g2
Nsg3
Nsg14
I7
sg15
Nsg16
Nsbsbsbsbsg14
I6
sg15
I5
sg16
(i__main__
Node
p2849
(dp2850
g2
Nsg3
Nsg14
I5
sg15
Nsg16
Nsbsbsg14
I6
sg15
I6
sg16
(i__main__
Node
p2851
(dp2852
g2
I273
sg3
(i__main__
Node
p2853
(dp2854
g2
I287
sg3
(i__main__
Node
p2855
(dp2856
g2
I112
sg3
(i__main__
Node
p2857
(dp2858
g2
I294
sg3
(i__main__
Node
p2859
(dp2860
g2
Nsg3
Nsg14
I6
sg15
Nsg16
Nsbsg14
I6
sg15
I0
sg16
(i__main__
Node
p2861
(dp2862
g2
Nsg3
Nsg14
I4
sg15
Nsg16
Nsbsbsg14
I7
sg15
I1
sg16
(i__main__
Node
p2863
(dp2864
g2
I98
sg3
(i__main__
Node
p2865
(dp2866
g2
Nsg3
Nsg14
I7
sg15
Nsg16
Nsbsg14
I7
sg15
I5
sg16
(i__main__
Node
p2867
(dp2868
g2
I70
sg3
(i__main__
Node
p2869
(dp2870
g2
Nsg3
Nsg14
I6
sg15
Nsg16
Nsbsg14
I6
sg15
I5
sg16
(i__main__
Node
p2871
(dp2872
g2
I273
sg3
(i__main__
Node
p2873
(dp2874
g2
Nsg3
Nsg14
I6
sg15
Nsg16
Nsbsg14
I7
sg15
I2
sg16
(i__main__
Node
p2875
(dp2876
g2
Nsg3
Nsg14
I7
sg15
Nsg16
Nsbsbsbsbsbsg14
I6
sg15
I0
sg16
(i__main__
Node
p2877
(dp2878
g2
I182
sg3
(i__main__
Node
p2879
(dp2880
g2
I266
sg3
(i__main__
Node
p2881
(dp2882
g2
I91
sg3
(i__main__
Node
p2883
(dp2884
g2
I245
sg3
(i__main__
Node
p2885
(dp2886
g2
Nsg3
Nsg14
I6
sg15
Nsg16
Nsbsg14
I7
sg15
I4
sg16
(i__main__
Node
p2887
(dp2888
g2
Nsg3
Nsg14
I7
sg15
Nsg16
Nsbsbsg14
I7
sg15
I5
sg16
(i__main__
Node
p2889
(dp2890
g2
Nsg3
Nsg14
I6
sg15
Nsg16
Nsbsbsg14
I6
sg15
I7
sg16
(i__main__
Node
p2891
(dp2892
g2
I427
sg3
(i__main__
Node
p2893
(dp2894
g2
I70
sg3
(i__main__
Node
p2895
(dp2896
g2
Nsg3
Nsg14
I7
sg15
Nsg16
Nsbsg14
I7
sg15
I1
sg16
(i__main__
Node
p2897
(dp2898
g2
Nsg3
Nsg14
I6
sg15
Nsg16
Nsbsbsg14
I6
sg15
I9
sg16
(i__main__
Node
p2899
(dp2900
g2
Nsg3
Nsg14
I6
sg15
Nsg16
Nsbsbsbsg14
I6
sg15
I2
sg16
(i__main__
Node
p2901
(dp2902
g2
I147
sg3
(i__main__
Node
p2903
(dp2904
g2
Nsg3
Nsg14
I6
sg15
Nsg16
Nsbsg14
I6
sg15
I2
sg16
(i__main__
Node
p2905
(dp2906
g2
I210
sg3
(i__main__
Node
p2907
(dp2908
g2
Nsg3
Nsg14
I6
sg15
Nsg16
Nsbsg14
I6
sg15
I0
sg16
(i__main__
Node
p2909
(dp2910
g2
I189
sg3
(i__main__
Node
p2911
(dp2912
g2
Nsg3
Nsg14
I7
sg15
Nsg16
Nsbsg14
I5
sg15
I0
sg16
(i__main__
Node
p2913
(dp2914
g2
Nsg3
Nsg14
I5
sg15
Nsg16
Nsbsbsbsbsbsbsg14
I6
sg15
I9
sg16
(i__main__
Node
p2915
(dp2916
g2
I322
sg3
(i__main__
Node
p2917
(dp2918
g2
I273
sg3
(i__main__
Node
p2919
(dp2920
g2
Nsg3
Nsg14
I7
sg15
Nsg16
Nsbsg14
I6
sg15
I6
sg16
(i__main__
Node
p2921
(dp2922
g2
I350
sg3
(i__main__
Node
p2923
(dp2924
g2
I364
sg3
(i__main__
Node
p2925
(dp2926
g2
Nsg3
Nsg14
I7
sg15
Nsg16
Nsbsg14
I7
sg15
I0
sg16
(i__main__
Node
p2927
(dp2928
g2
Nsg3
Nsg14
I5
sg15
Nsg16
Nsbsbsg14
I6
sg15
I0
sg16
(i__main__
Node
p2929
(dp2930
g2
I224
sg3
(i__main__
Node
p2931
(dp2932
g2
I91
sg3
(i__main__
Node
p2933
(dp2934
g2
Nsg3
Nsg14
I6
sg15
Nsg16
Nsbsg14
I6
sg15
I1
sg16
(i__main__
Node
p2935
(dp2936
g2
I301
sg3
(i__main__
Node
p2937
(dp2938
g2
Nsg3
Nsg14
I6
sg15
Nsg16
Nsbsg14
I7
sg15
I0
sg16
(i__main__
Node
p2939
(dp2940
g2
Nsg3
Nsg14
I7
sg15
Nsg16
Nsbsbsbsg14
I6
sg15
I9
sg16
(i__main__
Node
p2941
(dp2942
g2
Nsg3
Nsg14
I6
sg15
Nsg16
Nsbsbsbsbsg14
I6
sg15
I10
sg16
(i__main__
Node
p2943
(dp2944
g2
I126
sg3
(i__main__
Node
p2945
(dp2946
g2
I182
sg3
(i__main__
Node
p2947
(dp2948
g2
I231
sg3
(i__main__
Node
p2949
(dp2950
g2
I266
sg3
(i__main__
Node
p2951
(dp2952
g2
Nsg3
Nsg14
I7
sg15
Nsg16
Nsbsg14
I7
sg15
I0
sg16
(i__main__
Node
p2953
(dp2954
g2
I259
sg3
(i__main__
Node
p2955
(dp2956
g2
Nsg3
Nsg14
I5
sg15
Nsg16
Nsbsg14
I7
sg15
I0
sg16
(i__main__
Node
p2957
(dp2958
g2
Nsg3
Nsg14
I7
sg15
Nsg16
Nsbsbsbsg14
I7
sg15
I6
sg16
(i__main__
Node
p2959
(dp2960
g2
Nsg3
Nsg14
I6
sg15
Nsg16
Nsbsbsg14
I6
sg15
I2
sg16
(i__main__
Node
p2961
(dp2962
g2
I224
sg3
(i__main__
Node
p2963
(dp2964
g2
I168
sg3
(i__main__
Node
p2965
(dp2966
g2
Nsg3
Nsg14
I5
sg15
Nsg16
Nsbsg14
I5
sg15
I0
sg16
(i__main__
Node
p2967
(dp2968
g2
I161
sg3
(i__main__
Node
p2969
(dp2970
g2
Nsg3
Nsg14
I6
sg15
Nsg16
Nsbsg14
I5
sg15
I0
sg16
(i__main__
Node
p2971
(dp2972
g2
Nsg3
Nsg14
I5
sg15
Nsg16
Nsbsbsbsg14
I6
sg15
I9
sg16
(i__main__
Node
p2973
(dp2974
g2
Nsg3
Nsg14
I6
sg15
Nsg16
Nsbsbsbsg14
I5
sg15
I3
sg16
(i__main__
Node
p2975
(dp2976
g2
I294
sg3
(i__main__
Node
p2977
(dp2978
g2
Nsg3
Nsg14
I6
sg15
Nsg16
Nsbsg14
I5
sg15
I6
sg16
(i__main__
Node
p2979
(dp2980
g2
Nsg3
Nsg14
I5
sg15
Nsg16
Nsbsbsbsbsbsbsg14
I6
sg15
I8
sg16
(i__main__
Node
p2981
(dp2982
g2
I49
sg3
(i__main__
Node
p2983
(dp2984
g2
I350
sg3
(i__main__
Node
p2985
(dp2986
g2
I91
sg3
(i__main__
Node
p2987
(dp2988
g2
I434
sg3
(i__main__
Node
p2989
(dp2990
g2
I112
sg3
(i__main__
Node
p2991
(dp2992
g2
Nsg3
Nsg14
I5
sg15
Nsg16
Nsbsg14
I5
sg15
I1
sg16
(i__main__
Node
p2993
(dp2994
g2
I140
sg3
(i__main__
Node
p2995
(dp2996
g2
Nsg3
Nsg14
I6
sg15
Nsg16
Nsbsg14
I6
sg15
I2
sg16
(i__main__
Node
p2997
(dp2998
g2
Nsg3
Nsg14
I5
sg15
Nsg16
Nsbsbsbsg14
I6
sg15
I8
sg16
(i__main__
Node
p2999
(dp3000
g2
Nsg3
Nsg14
I6
sg15
Nsg16
Nsbsbsg14
I6
sg15
I1
sg16
(i__main__
Node
p3001
(dp3002
g2
I245
sg3
(i__main__
Node
p3003
(dp3004
g2
I70
sg3
(i__main__
Node
p3005
(dp3006
g2
I189
sg3
(i__main__
Node
p3007
(dp3008
g2
Nsg3
Nsg14
I6
sg15
Nsg16
Nsbsg14
I5
sg15
I5
sg16
(i__main__
Node
p3009
(dp3010
g2
Nsg3
Nsg14
I5
sg15
Nsg16
Nsbsbsg14
I6
sg15
I1
sg16
(i__main__
Node
p3011
(dp3012
g2
I91
sg3
(i__main__
Node
p3013
(dp3014
g2
Nsg3
Nsg14
I6
sg15
Nsg16
Nsbsg14
I6
sg15
I4
sg16
(i__main__
Node
p3015
(dp3016
g2
Nsg3
Nsg14
I8
sg15
Nsg16
Nsbsbsbsg14
I6
sg15
I3
sg16
(i__main__
Node
p3017
(dp3018
g2
I406
sg3
(i__main__
Node
p3019
(dp3020
g2
I175
sg3
(i__main__
Node
p3021
(dp3022
g2
Nsg3
Nsg14
I7
sg15
Nsg16
Nsbsg14
I8
sg15
I2
sg16
(i__main__
Node
p3023
(dp3024
g2
Nsg3
Nsg14
I8
sg15
Nsg16
Nsbsbsg14
I8
sg15
I8
sg16
(i__main__
Node
p3025
(dp3026
g2
I56
sg3
(i__main__
Node
p3027
(dp3028
g2
Nsg3
Nsg14
I6
sg15
Nsg16
Nsbsg14
I6
sg15
I3
sg16
(i__main__
Node
p3029
(dp3030
g2
Nsg3
Nsg14
I8
sg15
Nsg16
Nsbsbsbsbsbsg14
I6
sg15
I8
sg16
(i__main__
Node
p3031
(dp3032
g2
I336
sg3
(i__main__
Node
p3033
(dp3034
g2
I14
sg3
(i__main__
Node
p3035
(dp3036
g2
I441
sg3
(i__main__
Node
p3037
(dp3038
g2
Nsg3
Nsg14
I6
sg15
Nsg16
Nsbsg14
I7
sg15
I0
sg16
(i__main__
Node
p3039
(dp3040
g2
I196
sg3
(i__main__
Node
p3041
(dp3042
g2
I273
sg3
(i__main__
Node
p3043
(dp3044
g2
I301
sg3
(i__main__
Node
p3045
(dp3046
g2
Nsg3
Nsg14
I7
sg15
Nsg16
Nsbsg14
I6
sg15
I8
sg16
(i__main__
Node
p3047
(dp3048
g2
Nsg3
Nsg14
I6
sg15
Nsg16
Nsbsbsg14
I6
sg15
I0
sg16
(i__main__
Node
p3049
(dp3050
g2
Nsg3
Nsg14
I7
sg15
Nsg16
Nsbsbsg14
I7
sg15
I2
sg16
(i__main__
Node
p3051
(dp3052
g2
Nsg3
Nsg14
I7
sg15
Nsg16
Nsbsbsbsg14
I7
sg15
I5
sg16
(i__main__
Node
p3053
(dp3054
g2
Nsg3
Nsg14
I4
sg15
Nsg16
Nsbsbsg14
I6
sg15
I10
sg16
(i__main__
Node
p3055
(dp3056
g2
I126
sg3
(i__main__
Node
p3057
(dp3058
g2
I259
sg3
(i__main__
Node
p3059
(dp3060
g2
I350
sg3
(i__main__
Node
p3061
(dp3062
g2
Nsg3
Nsg14
I5
sg15
Nsg16
Nsbsg14
I6
sg15
I2
sg16
(i__main__
Node
p3063
(dp3064
g2
I119
sg3
(i__main__
Node
p3065
(dp3066
g2
Nsg3
Nsg14
I6
sg15
Nsg16
Nsbsg14
I6
sg15
I4
sg16
(i__main__
Node
p3067
(dp3068
g2
I154
sg3
(i__main__
Node
p3069
(dp3070
g2
Nsg3
Nsg14
I6
sg15
Nsg16
Nsbsg14
I7
sg15
I5
sg16
(i__main__
Node
p3071
(dp3072
g2
Nsg3
Nsg14
I7
sg15
Nsg16
Nsbsbsbsbsg14
I5
sg15
I0
sg16
(i__main__
Node
p3073
(dp3074
g2
I210
sg3
(i__main__
Node
p3075
(dp3076
g2
Nsg3
Nsg14
I5
sg15
Nsg16
Nsbsg14
I5
sg15
I0
sg16
(i__main__
Node
p3077
(dp3078
g2
Nsg3
Nsg14
I4
sg15
Nsg16
Nsbsbsbsg14
I6
sg15
I5
sg16
(i__main__
Node
p3079
(dp3080
g2
I315
sg3
(i__main__
Node
p3081
(dp3082
g2
I77
sg3
(i__main__
Node
p3083
(dp3084
g2
Nsg3
Nsg14
I5
sg15
Nsg16
Nsbsg14
I6
sg15
I5
sg16
(i__main__
Node
p3085
(dp3086
g2
Nsg3
Nsg14
I6
sg15
Nsg16
Nsbsbsg14
I6
sg15
I0
sg16
(i__main__
Node
p3087
(dp3088
g2
Nsg3
Nsg14
I6
sg15
Nsg16
Nsbsbsbsbsbsg14
I6
sg15
I3
sg16
(i__main__
Node
p3089
(dp3090
g2
I168
sg3
(i__main__
Node
p3091
(dp3092
g2
I336
sg3
(i__main__
Node
p3093
(dp3094
g2
I525
sg3
(i__main__
Node
p3095
(dp3096
g2
Nsg3
Nsg14
I5
sg15
Nsg16
Nsbsg14
I4
sg15
I0
sg16
(i__main__
Node
p3097
(dp3098
g2
Nsg3
Nsg14
I4
sg15
Nsg16
Nsbsbsg14
I6
sg15
I7
sg16
(i__main__
Node
p3099
(dp3100
g2
I455
sg3
(i__main__
Node
p3101
(dp3102
g2
I210
sg3
(i__main__
Node
p3103
(dp3104
g2
I98
sg3
(i__main__
Node
p3105
(dp3106
g2
Nsg3
Nsg14
I5
sg15
Nsg16
Nsbsg14
I5
sg15
I4
sg16
(i__main__
Node
p3107
(dp3108
g2
I364
sg3
(i__main__
Node
p3109
(dp3110
g2
Nsg3
Nsg14
I5
sg15
Nsg16
Nsbsg14
I7
sg15
I0
sg16
(i__main__
Node
p3111
(dp3112
g2
Nsg3
Nsg14
I7
sg15
Nsg16
Nsbsbsbsg14
I5
sg15
I0
sg16
(i__main__
Node
p3113
(dp3114
g2
Nsg3
Nsg14
I6
sg15
Nsg16
Nsbsbsg14
I6
sg15
I10
sg16
(i__main__
Node
p3115
(dp3116
g2
I77
sg3
(i__main__
Node
p3117
(dp3118
g2
I252
sg3
(i__main__
Node
p3119
(dp3120
g2
I35
sg3
(i__main__
Node
p3121
(dp3122
g2
I77
sg3
(i__main__
Node
p3123
(dp3124
g2
I224
sg3
(i__main__
Node
p3125
(dp3126
g2
Nsg3
Nsg14
I6
sg15
Nsg16
Nsbsg14
I6
sg15
I9
sg16
(i__main__
Node
p3127
(dp3128
g2
Nsg3
Nsg14
I5
sg15
Nsg16
Nsbsbsg14
I5
sg15
I5
sg16
(i__main__
Node
p3129
(dp3130
g2
Nsg3
Nsg14
I5
sg15
Nsg16
Nsbsbsg14
I6
sg15
I3
sg16
(i__main__
Node
p3131
(dp3132
g2
I378
sg3
(i__main__
Node
p3133
(dp3134
g2
I238
sg3
(i__main__
Node
p3135
(dp3136
g2
I301
sg3
(i__main__
Node
p3137
(dp3138
g2
I245
sg3
(i__main__
Node
p3139
(dp3140
g2
Nsg3
Nsg14
I6
sg15
Nsg16
Nsbsg14
I6
sg15
I6
sg16
(i__main__
Node
p3141
(dp3142
g2
I420
sg3
(i__main__
Node
p3143
(dp3144
g2
Nsg3
Nsg14
I6
sg15
Nsg16
Nsbsg14
I5
sg15
I8
sg16
(i__main__
Node
p3145
(dp3146
g2
Nsg3
Nsg14
I5
sg15
Nsg16
Nsbsbsbsg14
I5
sg15
I9
sg16
(i__main__
Node
p3147
(dp3148
g2
Nsg3
Nsg14
I5
sg15
Nsg16
Nsbsbsg14
I6
sg15
I9
sg16
(i__main__
Node
p3149
(dp3150
g2
Nsg3
Nsg14
I6
sg15
Nsg16
Nsbsbsg14
I6
sg15
I8
sg16
(i__main__
Node
p3151
(dp3152
g2
I357
sg3
(i__main__
Node
p3153
(dp3154
g2
Nsg3
Nsg14
I5
sg15
Nsg16
Nsbsg14
I6
sg15
I6
sg16
(i__main__
Node
p3155
(dp3156
g2
Nsg3
Nsg14
I6
sg15
Nsg16
Nsbsbsbsbsg14
I6
sg15
I8
sg16
(i__main__
Node
p3157
(dp3158
g2
Nsg3
Nsg14
I5
sg15
Nsg16
Nsbsbsg14
I6
sg15
I4
sg16
(i__main__
Node
p3159
(dp3160
g2
I42
sg3
(i__main__
Node
p3161
(dp3162
g2
Nsg3
Nsg14
I6
sg15
Nsg16
Nsbsg14
I6
sg15
I5
sg16
(i__main__
Node
p3163
(dp3164
g2
Nsg3
Nsg14
I4
sg15
Nsg16
Nsbsbsbsbsbsg14
I6
sg15
I9
sg16
(i__main__
Node
p3165
(dp3166
g2
I105
sg3
(i__main__
Node
p3167
(dp3168
g2
Nsg3
Nsg14
I5
sg15
Nsg16
Nsbsg14
I5
sg15
I8
sg16
(i__main__
Node
p3169
(dp3170
g2
I91
sg3
(i__main__
Node
p3171
(dp3172
g2
Nsg3
Nsg14
I4
sg15
Nsg16
Nsbsg14
I5
sg15
I1
sg16
(i__main__
Node
p3173
(dp3174
g2
Nsg3
Nsg14
I5
sg15
Nsg16
Nsbsbsbsbsbsbsbsbsbsb.